
emoskrnl.elf:     file format elf32-littlearm


Disassembly of section .head.text:

20008000 <__begin_kernel>:
20008000:	e3a00000 	mov	r0, #0
20008004:	e59f105c 	ldr	r1, [pc, #92]	; 20008068 <clean_loop+0x14>
20008008:	e5801000 	str	r1, [r0]
2000800c:	e10f0000 	mrs	r0, CPSR
20008010:	e3c0001f 	bic	r0, r0, #31
20008014:	e380000d 	orr	r0, r0, #13
20008018:	e129f000 	msr	CPSR_fc, r0
2000801c:	e3e00000 	mvn	r0, #0
20008020:	e59f1044 	ldr	r1, [pc, #68]	; 2000806c <clean_loop+0x18>
20008024:	e5810000 	str	r0, [r1]
20008028:	e59f1040 	ldr	r1, [pc, #64]	; 20008070 <clean_loop+0x1c>
2000802c:	e5810000 	str	r0, [r1]
20008030:	e59f103c 	ldr	r1, [pc, #60]	; 20008074 <clean_loop+0x20>
20008034:	e5810000 	str	r0, [r1]
20008038:	e59f1038 	ldr	r1, [pc, #56]	; 20008078 <clean_loop+0x24>
2000803c:	e5810000 	str	r0, [r1]
20008040:	e3a0d206 	mov	sp, #1610612736	; 0x60000000
20008044:	eb00000e 	bl	20008084 <lmosemhal_start>

20008048 <clean_bss>:
20008048:	e59f002c 	ldr	r0, [pc, #44]	; 2000807c <clean_loop+0x28>
2000804c:	e59f102c 	ldr	r1, [pc, #44]	; 20008080 <clean_loop+0x2c>
20008050:	e3a02000 	mov	r2, #0

20008054 <clean_loop>:
20008054:	e1500001 	cmp	r0, r1
20008058:	e1500001 	cmp	r0, r1
2000805c:	b8a00004 	stmialt	r0!, {r2}
20008060:	bafffffb 	blt	20008054 <clean_loop>
20008064:	e1a0f00e 	mov	pc, lr
20008068:	e2700000 	rsbs	r0, r0, #0
2000806c:	f2000014 	vqadd.s8	d0, d0, d4
20008070:	f2100014 	vqadd.s16	d0, d0, d4
20008074:	f2200014 	vqadd.s32	d0, d0, d4
20008078:	f2300014 	vqadd.s64	d0, d0, d4
2000807c:	2000fbe0 	andcs	pc, r0, r0, ror #23
20008080:	2000fbec 	andcs	pc, r0, ip, ror #23

20008084 <lmosemhal_start>:
20008084:	e92d4008 	push	{r3, lr}
20008088:	eb000001 	bl	20008094 <hal_init>
2000808c:	e8bd4008 	pop	{r3, lr}
20008090:	ea00087a 	b	2000a280 <krnl_init>

20008094 <hal_init>:
20008094:	e92d4008 	push	{r3, lr}
20008098:	eb000030 	bl	20008160 <platform_init>
2000809c:	eb000150 	bl	200085e4 <hal_uart_init>
200080a0:	e30c0dc0 	movw	r0, #52672	; 0xcdc0
200080a4:	e3420000 	movt	r0, #8192	; 0x2000
200080a8:	eb00026f 	bl	20008a6c <printk>
200080ac:	eb000318 	bl	20008d14 <hal_board_dscp_init>
200080b0:	e30c0de4 	movw	r0, #52708	; 0xcde4
200080b4:	e3420000 	movt	r0, #8192	; 0x2000
200080b8:	eb00026b 	bl	20008a6c <printk>
200080bc:	eb000477 	bl	200092a0 <hal_mm_init>
200080c0:	eb000607 	bl	200098e4 <hal_interrupt_init>
200080c4:	e30c0e18 	movw	r0, #52760	; 0xce18
200080c8:	e3420000 	movt	r0, #8192	; 0x2000
200080cc:	e8bd4008 	pop	{r3, lr}
200080d0:	ea000265 	b	20008a6c <printk>

200080d4 <s5pv210_mmu_init>:
200080d4:	e3032ffc 	movw	r2, #16380	; 0x3ffc
200080d8:	e3070ffc 	movw	r0, #32764	; 0x7ffc
200080dc:	e3422000 	movt	r2, #8192	; 0x2000
200080e0:	e3420000 	movt	r0, #8192	; 0x2000
200080e4:	e3a01000 	mov	r1, #0
200080e8:	e3813ec1 	orr	r3, r1, #3088	; 0xc10
200080ec:	e2811601 	add	r1, r1, #1048576	; 0x100000
200080f0:	e3833002 	orr	r3, r3, #2
200080f4:	e5a23004 	str	r3, [r2, #4]!
200080f8:	e1520000 	cmp	r2, r0
200080fc:	1afffff9 	bne	200080e8 <s5pv210_mmu_init+0x14>
20008100:	e3a03901 	mov	r3, #16384	; 0x4000
20008104:	e3423000 	movt	r3, #8192	; 0x2000
20008108:	ee023f10 	mcr	15, 0, r3, cr2, cr0, {0}
2000810c:	e3e03000 	mvn	r3, #0
20008110:	ee033f10 	mcr	15, 0, r3, cr3, cr0, {0}
20008114:	e3a00000 	mov	r0, #0
20008118:	ee070f15 	mcr	15, 0, r0, cr7, cr5, {0}
2000811c:	ee070f36 	mcr	15, 0, r0, cr7, cr6, {1}
20008120:	ee080f17 	mcr	15, 0, r0, cr8, cr7, {0}
20008124:	e301300e 	movw	r3, #4110	; 0x100e
20008128:	ee110f10 	mrc	15, 0, r0, cr1, cr0, {0}
2000812c:	e1800003 	orr	r0, r0, r3
20008130:	ee010f10 	mcr	15, 0, r0, cr1, cr0, {0}
20008134:	ee110f10 	mrc	15, 0, r0, cr1, cr0, {0}
20008138:	e3800001 	orr	r0, r0, #1
2000813c:	ee010f10 	mcr	15, 0, r0, cr1, cr0, {0}
20008140:	e320f000 	nop	{0}
20008144:	e320f000 	nop	{0}
20008148:	e320f000 	nop	{0}
2000814c:	e320f000 	nop	{0}
20008150:	e320f000 	nop	{0}
20008154:	e320f000 	nop	{0}
20008158:	e320f000 	nop	{0}
2000815c:	e12fff1e 	bx	lr

20008160 <platform_init>:
20008160:	e92d4008 	push	{r3, lr}
20008164:	ebffffda 	bl	200080d4 <s5pv210_mmu_init>
20008168:	e3083220 	movw	r3, #33312	; 0x8220
2000816c:	e3423000 	movt	r3, #8192	; 0x2000
20008170:	ee110f10 	mrc	15, 0, r0, cr1, cr0, {0}
20008174:	e3c00a02 	bic	r0, r0, #8192	; 0x2000
20008178:	ee010f10 	mcr	15, 0, r0, cr1, cr0, {0}
2000817c:	ee0c3f10 	mcr	15, 0, r3, cr12, cr0, {0}
20008180:	e8bd8008 	pop	{r3, pc}

20008184 <s5pv210_set_ttb>:
20008184:	ee020f10 	mcr	15, 0, r0, cr2, cr0, {0}
20008188:	e12fff1e 	bx	lr

2000818c <s5pv210_set_domain>:
2000818c:	ee030f10 	mcr	15, 0, r0, cr3, cr0, {0}
20008190:	e12fff1e 	bx	lr

20008194 <s5pv210_invalid_tlb_cache>:
20008194:	e3a00000 	mov	r0, #0
20008198:	ee070f15 	mcr	15, 0, r0, cr7, cr5, {0}
2000819c:	ee070f36 	mcr	15, 0, r0, cr7, cr6, {1}
200081a0:	ee080f17 	mcr	15, 0, r0, cr8, cr7, {0}
200081a4:	e12fff1e 	bx	lr

200081a8 <s5pv210_enable_cache>:
200081a8:	e301300e 	movw	r3, #4110	; 0x100e
200081ac:	ee110f10 	mrc	15, 0, r0, cr1, cr0, {0}
200081b0:	e1800003 	orr	r0, r0, r3
200081b4:	ee010f10 	mcr	15, 0, r0, cr1, cr0, {0}
200081b8:	e12fff1e 	bx	lr

200081bc <s5pv210_enable_mmu>:
200081bc:	ee110f10 	mrc	15, 0, r0, cr1, cr0, {0}
200081c0:	e3800001 	orr	r0, r0, #1
200081c4:	ee010f10 	mcr	15, 0, r0, cr1, cr0, {0}
200081c8:	e320f000 	nop	{0}
200081cc:	e320f000 	nop	{0}
200081d0:	e320f000 	nop	{0}
200081d4:	e320f000 	nop	{0}
200081d8:	e320f000 	nop	{0}
200081dc:	e320f000 	nop	{0}
200081e0:	e320f000 	nop	{0}
200081e4:	e12fff1e 	bx	lr

200081e8 <s5pv210_disable_mmu>:
200081e8:	ee110f10 	mrc	15, 0, r0, cr1, cr0, {0}
200081ec:	e3c00001 	bic	r0, r0, #1
200081f0:	ee010f10 	mcr	15, 0, r0, cr1, cr0, {0}
200081f4:	e12fff1e 	bx	lr

200081f8 <s5pv210_vector_init>:
200081f8:	ee110f10 	mrc	15, 0, r0, cr1, cr0, {0}
200081fc:	e3c00a02 	bic	r0, r0, #8192	; 0x2000
20008200:	ee010f10 	mcr	15, 0, r0, cr1, cr0, {0}
20008204:	e12fff1e 	bx	lr

20008208 <s5pv210_set_vector_base>:
20008208:	e1a03000 	mov	r3, r0
2000820c:	ee110f10 	mrc	15, 0, r0, cr1, cr0, {0}
20008210:	e3c00a02 	bic	r0, r0, #8192	; 0x2000
20008214:	ee010f10 	mcr	15, 0, r0, cr1, cr0, {0}
20008218:	ee0c3f10 	mcr	15, 0, r3, cr12, cr0, {0}
2000821c:	e12fff1e 	bx	lr

Disassembly of section .lmosem_hal.vector:

20008220 <vector>:
20008220:	e59ff018 	ldr	pc, [pc, #24]	; 20008240 <hal_start_l>
20008224:	e59ff018 	ldr	pc, [pc, #24]	; 20008244 <hal_undefine_l>
20008228:	e59ff018 	ldr	pc, [pc, #24]	; 20008248 <hal_swi_l>
2000822c:	e59ff018 	ldr	pc, [pc, #24]	; 2000824c <hal_prefetch_abrot_l>
20008230:	e59ff018 	ldr	pc, [pc, #24]	; 20008250 <hal_data_abrot_l>
20008234:	e59ff018 	ldr	pc, [pc, #24]	; 20008254 <no_use_l>
20008238:	e59ff018 	ldr	pc, [pc, #24]	; 20008258 <hal_irq_l>
2000823c:	e59ff018 	ldr	pc, [pc, #24]	; 2000825c <hal_fiq_l>

20008240 <hal_start_l>:
20008240:	20008000 	andcs	r8, r0, r0

20008244 <hal_undefine_l>:
20008244:	20008260 	andcs	r8, r0, r0, ror #4

20008248 <hal_swi_l>:
20008248:	200082a8 	andcs	r8, r0, r8, lsr #5

2000824c <hal_prefetch_abrot_l>:
2000824c:	200082b8 			; <UNDEFINED> instruction: 0x200082b8

20008250 <hal_data_abrot_l>:
20008250:	20008300 	andcs	r8, r0, r0, lsl #6

20008254 <no_use_l>:
20008254:	20008348 	andcs	r8, r0, r8, asr #6

20008258 <hal_irq_l>:
20008258:	2000834c 	andcs	r8, r0, ip, asr #6

2000825c <hal_fiq_l>:
2000825c:	20008398 	mulcs	r0, r8, r3

Disassembly of section .lmosem_hal.intvect:

20008260 <hal_undefine>:
20008260:	e24ee000 	sub	lr, lr, #0
20008264:	e321f0d3 	msr	CPSR_c, #211	; 0xd3
20008268:	e24dd004 	sub	sp, sp, #4
2000826c:	e94d3fff 	stmdb	sp, {r0, r1, r2, r3, r4, r5, r6, r7, r8, r9, sl, fp, ip, sp}^
20008270:	e321f0db 	msr	CPSR_c, #219	; 0xdb
20008274:	e1a0000e 	mov	r0, lr
20008278:	e14f1000 	mrs	r1, SPSR
2000827c:	e321f0d3 	msr	CPSR_c, #211	; 0xd3
20008280:	e28dd004 	add	sp, sp, #4
20008284:	e90d0001 	stmdb	sp, {r0}
20008288:	e24dd03c 	sub	sp, sp, #60	; 0x3c
2000828c:	e92d0002 	stmfd	sp!, {r1}
20008290:	eb000772 	bl	2000a060 <hal_undefine_handle>
20008294:	e8bd0001 	ldmfd	sp!, {r0}
20008298:	e169f000 	msr	SPSR_fc, r0
2000829c:	e8dd3fff 	ldm	sp, {r0, r1, r2, r3, r4, r5, r6, r7, r8, r9, sl, fp, ip, sp}^
200082a0:	e28dd038 	add	sp, sp, #56	; 0x38
200082a4:	e8fd8000 	ldm	sp!, {pc}^

200082a8 <hal_swi>:
200082a8:	e24ee000 	sub	lr, lr, #0
200082ac:	e92d5fff 	push	{r0, r1, r2, r3, r4, r5, r6, r7, r8, r9, sl, fp, ip, lr}
200082b0:	eb000779 	bl	2000a09c <hal_swi_handle>
200082b4:	e8fd9fff 	ldm	sp!, {r0, r1, r2, r3, r4, r5, r6, r7, r8, r9, sl, fp, ip, pc}^

200082b8 <hal_prefetch_abrot>:
200082b8:	e24ee004 	sub	lr, lr, #4
200082bc:	e321f0d3 	msr	CPSR_c, #211	; 0xd3
200082c0:	e24dd004 	sub	sp, sp, #4
200082c4:	e94d3fff 	stmdb	sp, {r0, r1, r2, r3, r4, r5, r6, r7, r8, r9, sl, fp, ip, sp}^
200082c8:	e321f0d7 	msr	CPSR_c, #215	; 0xd7
200082cc:	e1a0000e 	mov	r0, lr
200082d0:	e14f1000 	mrs	r1, SPSR
200082d4:	e321f0d3 	msr	CPSR_c, #211	; 0xd3
200082d8:	e28dd004 	add	sp, sp, #4
200082dc:	e90d0001 	stmdb	sp, {r0}
200082e0:	e24dd03c 	sub	sp, sp, #60	; 0x3c
200082e4:	e92d0002 	stmfd	sp!, {r1}
200082e8:	eb000761 	bl	2000a074 <hal_prefeabort_handle>
200082ec:	e8bd0001 	ldmfd	sp!, {r0}
200082f0:	e169f000 	msr	SPSR_fc, r0
200082f4:	e8dd3fff 	ldm	sp, {r0, r1, r2, r3, r4, r5, r6, r7, r8, r9, sl, fp, ip, sp}^
200082f8:	e28dd038 	add	sp, sp, #56	; 0x38
200082fc:	e8fd8000 	ldm	sp!, {pc}^

20008300 <hal_data_abrot>:
20008300:	e24ee008 	sub	lr, lr, #8
20008304:	e321f0d3 	msr	CPSR_c, #211	; 0xd3
20008308:	e24dd004 	sub	sp, sp, #4
2000830c:	e94d3fff 	stmdb	sp, {r0, r1, r2, r3, r4, r5, r6, r7, r8, r9, sl, fp, ip, sp}^
20008310:	e321f0d7 	msr	CPSR_c, #215	; 0xd7
20008314:	e1a0000e 	mov	r0, lr
20008318:	e14f1000 	mrs	r1, SPSR
2000831c:	e321f0d3 	msr	CPSR_c, #211	; 0xd3
20008320:	e28dd004 	add	sp, sp, #4
20008324:	e90d0001 	stmdb	sp, {r0}
20008328:	e24dd03c 	sub	sp, sp, #60	; 0x3c
2000832c:	e92d0002 	stmfd	sp!, {r1}
20008330:	eb000754 	bl	2000a088 <hal_dataabort_handle>
20008334:	e8bd0001 	ldmfd	sp!, {r0}
20008338:	e169f000 	msr	SPSR_fc, r0
2000833c:	e8dd3fff 	ldm	sp, {r0, r1, r2, r3, r4, r5, r6, r7, r8, r9, sl, fp, ip, sp}^
20008340:	e28dd038 	add	sp, sp, #56	; 0x38
20008344:	e8fd8000 	ldm	sp!, {pc}^

20008348 <no_use>:
20008348:	eafffffe 	b	20008348 <no_use>

2000834c <hal_irq>:
2000834c:	e24ee004 	sub	lr, lr, #4
20008350:	e321f0d3 	msr	CPSR_c, #211	; 0xd3
20008354:	e24dd004 	sub	sp, sp, #4
20008358:	e94d7fff 	stmdb	sp, {r0, r1, r2, r3, r4, r5, r6, r7, r8, r9, sl, fp, ip, sp, lr}^
2000835c:	e321f0d2 	msr	CPSR_c, #210	; 0xd2
20008360:	e1a0000e 	mov	r0, lr
20008364:	e14f1000 	mrs	r1, SPSR
20008368:	e321f0d3 	msr	CPSR_c, #211	; 0xd3
2000836c:	e28dd004 	add	sp, sp, #4
20008370:	e90d0001 	stmdb	sp, {r0}
20008374:	e24dd040 	sub	sp, sp, #64	; 0x40
20008378:	e92d0002 	stmfd	sp!, {r1}
2000837c:	e14f1000 	mrs	r1, SPSR
20008380:	eb000746 	bl	2000a0a0 <hal_irq_handle>
20008384:	e8bd0002 	ldmfd	sp!, {r1}
20008388:	e169f001 	msr	SPSR_fc, r1
2000838c:	e8dd7fff 	ldm	sp, {r0, r1, r2, r3, r4, r5, r6, r7, r8, r9, sl, fp, ip, sp, lr}^
20008390:	e28dd03c 	add	sp, sp, #60	; 0x3c
20008394:	e8fd8000 	ldm	sp!, {pc}^

20008398 <hal_fiq>:
20008398:	e24ee004 	sub	lr, lr, #4
2000839c:	e321f0d3 	msr	CPSR_c, #211	; 0xd3
200083a0:	e24dd004 	sub	sp, sp, #4
200083a4:	e90d00ff 	stmdb	sp, {r0, r1, r2, r3, r4, r5, r6, r7}
200083a8:	e321f0d1 	msr	CPSR_c, #209	; 0xd1
200083ac:	e1a0000e 	mov	r0, lr
200083b0:	e14f1000 	mrs	r1, SPSR
200083b4:	e321f0d3 	msr	CPSR_c, #211	; 0xd3
200083b8:	e28dd004 	add	sp, sp, #4
200083bc:	e90d0001 	stmdb	sp, {r0}
200083c0:	e24dd024 	sub	sp, sp, #36	; 0x24
200083c4:	e92d0002 	stmfd	sp!, {r1}
200083c8:	eb0007a7 	bl	2000a26c <hal_fiq_handle>
200083cc:	e8bd0001 	ldmfd	sp!, {r0}
200083d0:	e169f000 	msr	SPSR_fc, r0
200083d4:	e8fd80ff 	ldm	sp!, {r0, r1, r2, r3, r4, r5, r6, r7, pc}^

Disassembly of section .text:

200083d8 <uart_init>:
200083d8:	e92d4070 	push	{r4, r5, r6, lr}
200083dc:	e3500003 	cmp	r0, #3
200083e0:	979ff100 	ldrls	pc, [pc, r0, lsl #2]
200083e4:	ea00005c 	b	2000855c <__begin_text+0x184>
200083e8:	20008524 	andcs	r8, r0, r4, lsr #10
200083ec:	200084ec 	andcs	r8, r0, ip, ror #9
200083f0:	200084bc 			; <UNDEFINED> instruction: 0x200084bc
200083f4:	200083f8 	strdcs	r8, [r0], -r8	; <UNPREDICTABLE>
200083f8:	e3a02020 	mov	r2, #32
200083fc:	e34e2020 	movt	r2, #57376	; 0xe020
20008400:	e5923000 	ldr	r3, [r2]
20008404:	e3c33cff 	bic	r3, r3, #65280	; 0xff00
20008408:	e3833c22 	orr	r3, r3, #8704	; 0x2200
2000840c:	e5823000 	str	r3, [r2]
20008410:	e30f4be4 	movw	r4, #64484	; 0xfbe4
20008414:	e3a03b03 	mov	r3, #3072	; 0xc00
20008418:	e3424000 	movt	r4, #8192	; 0x2000
2000841c:	e34e3290 	movt	r3, #58000	; 0xe290
20008420:	e5843000 	str	r3, [r4]
20008424:	e5943000 	ldr	r3, [r4]
20008428:	e3a02003 	mov	r2, #3
2000842c:	e5832000 	str	r2, [r3]
20008430:	e5943000 	ldr	r3, [r4]
20008434:	e3a02005 	mov	r2, #5
20008438:	e2833004 	add	r3, r3, #4
2000843c:	e5832000 	str	r2, [r3]
20008440:	e5943000 	ldr	r3, [r4]
20008444:	e3a02001 	mov	r2, #1
20008448:	e2833008 	add	r3, r3, #8
2000844c:	e5832000 	str	r2, [r3]
20008450:	e1a05201 	lsl	r5, r1, #4
20008454:	e3a00d52 	mov	r0, #5248	; 0x1480
20008458:	e34003ef 	movt	r0, #1007	; 0x3ef
2000845c:	e5946000 	ldr	r6, [r4]
20008460:	e1a01005 	mov	r1, r5
20008464:	eb000062 	bl	200085f4 <__udivsi3>
20008468:	e2866028 	add	r6, r6, #40	; 0x28
2000846c:	e2403001 	sub	r3, r0, #1
20008470:	e5863000 	str	r3, [r6]
20008474:	ee075a90 	vmov	s15, r5
20008478:	e5943000 	ldr	r3, [r4]
2000847c:	ed9f5b39 	vldr	d5, [pc, #228]	; 20008568 <__begin_text+0x190>
20008480:	e30d2af4 	movw	r2, #56052	; 0xdaf4
20008484:	e3422000 	movt	r2, #8192	; 0x2000
20008488:	e283302c 	add	r3, r3, #44	; 0x2c
2000848c:	eeb86b67 	vcvt.f64.u32	d6, s15
20008490:	ee070a90 	vmov	s15, r0
20008494:	ed9f4b35 	vldr	d4, [pc, #212]	; 20008570 <__begin_text+0x198>
20008498:	ee856b06 	vdiv.f64	d6, d5, d6
2000849c:	eeb87be7 	vcvt.f64.s32	d7, s15
200084a0:	ee367b47 	vsub.f64	d7, d6, d7
200084a4:	ee277b04 	vmul.f64	d7, d7, d4
200084a8:	eebc7bc7 	vcvt.u32.f64	s14, d7
200084ac:	ee171a10 	vmov	r1, s14
200084b0:	e7922101 	ldr	r2, [r2, r1, lsl #2]
200084b4:	e5832000 	str	r2, [r3]
200084b8:	e8bd8070 	pop	{r4, r5, r6, pc}
200084bc:	e3a02020 	mov	r2, #32
200084c0:	e34e2020 	movt	r2, #57376	; 0xe020
200084c4:	e5923000 	ldr	r3, [r2]
200084c8:	e3c330ff 	bic	r3, r3, #255	; 0xff
200084cc:	e3833022 	orr	r3, r3, #34	; 0x22
200084d0:	e5823000 	str	r3, [r2]
200084d4:	e30f4be4 	movw	r4, #64484	; 0xfbe4
200084d8:	e3a03b02 	mov	r3, #2048	; 0x800
200084dc:	e3424000 	movt	r4, #8192	; 0x2000
200084e0:	e34e3290 	movt	r3, #58000	; 0xe290
200084e4:	e5843000 	str	r3, [r4]
200084e8:	eaffffcd 	b	20008424 <__begin_text+0x4c>
200084ec:	e3a02000 	mov	r2, #0
200084f0:	e34e2020 	movt	r2, #57376	; 0xe020
200084f4:	e5923000 	ldr	r3, [r2]
200084f8:	e3c3358b 	bic	r3, r3, #583008256	; 0x22c00000
200084fc:	e3c3383f 	bic	r3, r3, #4128768	; 0x3f0000
20008500:	e3833422 	orr	r3, r3, #570425344	; 0x22000000
20008504:	e3833822 	orr	r3, r3, #2228224	; 0x220000
20008508:	e5823000 	str	r3, [r2]
2000850c:	e30f4be4 	movw	r4, #64484	; 0xfbe4
20008510:	e3a03b01 	mov	r3, #1024	; 0x400
20008514:	e3424000 	movt	r4, #8192	; 0x2000
20008518:	e34e3290 	movt	r3, #58000	; 0xe290
2000851c:	e5843000 	str	r3, [r4]
20008520:	eaffffbf 	b	20008424 <__begin_text+0x4c>
20008524:	e3a02000 	mov	r2, #0
20008528:	e34e2020 	movt	r2, #57376	; 0xe020
2000852c:	e5923000 	ldr	r3, [r2]
20008530:	e3c33d8b 	bic	r3, r3, #8896	; 0x22c0
20008534:	e3c3303f 	bic	r3, r3, #63	; 0x3f
20008538:	e3833c22 	orr	r3, r3, #8704	; 0x2200
2000853c:	e3833022 	orr	r3, r3, #34	; 0x22
20008540:	e5823000 	str	r3, [r2]
20008544:	e30f4be4 	movw	r4, #64484	; 0xfbe4
20008548:	e3a03000 	mov	r3, #0
2000854c:	e3424000 	movt	r4, #8192	; 0x2000
20008550:	e34e3290 	movt	r3, #58000	; 0xe290
20008554:	e5843000 	str	r3, [r4]
20008558:	eaffffb1 	b	20008424 <__begin_text+0x4c>
2000855c:	e30f4be4 	movw	r4, #64484	; 0xfbe4
20008560:	e3424000 	movt	r4, #8192	; 0x2000
20008564:	eaffffae 	b	20008424 <__begin_text+0x4c>
20008568:	00000000 	andeq	r0, r0, r0
2000856c:	418f78a4 	orrmi	r7, pc, r4, lsr #17
20008570:	00000000 	andeq	r0, r0, r0
20008574:	40300000 	eorsmi	r0, r0, r0

20008578 <uart_send_byte>:
20008578:	e30fcbe4 	movw	ip, #64484	; 0xfbe4
2000857c:	e342c000 	movt	ip, #8192	; 0x2000
20008580:	e59c3000 	ldr	r3, [ip]
20008584:	e30f2be4 	movw	r2, #64484	; 0xfbe4
20008588:	e3422000 	movt	r2, #8192	; 0x2000
2000858c:	e2833010 	add	r3, r3, #16
20008590:	e5930000 	ldr	r0, [r3]
20008594:	e3100004 	tst	r0, #4
20008598:	0afffff8 	beq	20008580 <uart_send_byte+0x8>
2000859c:	e5923000 	ldr	r3, [r2]
200085a0:	e2833020 	add	r3, r3, #32
200085a4:	e5831000 	str	r1, [r3]
200085a8:	e12fff1e 	bx	lr

200085ac <uart_recv_byte>:
200085ac:	e30f0be4 	movw	r0, #64484	; 0xfbe4
200085b0:	e3420000 	movt	r0, #8192	; 0x2000
200085b4:	e5903000 	ldr	r3, [r0]
200085b8:	e30f2be4 	movw	r2, #64484	; 0xfbe4
200085bc:	e3422000 	movt	r2, #8192	; 0x2000
200085c0:	e2833010 	add	r3, r3, #16
200085c4:	e5931000 	ldr	r1, [r3]
200085c8:	e3110001 	tst	r1, #1
200085cc:	0afffff8 	beq	200085b4 <uart_recv_byte+0x8>
200085d0:	e5923000 	ldr	r3, [r2]
200085d4:	e2833024 	add	r3, r3, #36	; 0x24
200085d8:	e5d30000 	ldrb	r0, [r3]
200085dc:	e6ef0070 	uxtb	r0, r0
200085e0:	e12fff1e 	bx	lr

200085e4 <hal_uart_init>:
200085e4:	e3a01cc2 	mov	r1, #49664	; 0xc200
200085e8:	e3a00000 	mov	r0, #0
200085ec:	e3401001 	movt	r1, #1
200085f0:	eaffff78 	b	200083d8 <uart_init>

200085f4 <__udivsi3>:
200085f4:	e3510000 	cmp	r1, #0
200085f8:	0a00001f 	beq	2000867c <Ldiv0>
200085fc:	e3a03001 	mov	r3, #1
20008600:	e3a02000 	mov	r2, #0
20008604:	e1500001 	cmp	r0, r1
20008608:	3a000019 	bcc	20008674 <Lgot_result>

2000860c <Loop1>:
2000860c:	e3510201 	cmp	r1, #268435456	; 0x10000000
20008610:	31510000 	cmpcc	r1, r0
20008614:	31a01201 	lslcc	r1, r1, #4
20008618:	31a03203 	lslcc	r3, r3, #4
2000861c:	3afffffa 	bcc	2000860c <Loop1>

20008620 <Lbignum>:
20008620:	e3510102 	cmp	r1, #-2147483648	; 0x80000000
20008624:	31510000 	cmpcc	r1, r0
20008628:	31a01081 	lslcc	r1, r1, #1
2000862c:	31a03083 	lslcc	r3, r3, #1
20008630:	3afffffa 	bcc	20008620 <Lbignum>

20008634 <Loop3>:
20008634:	e1500001 	cmp	r0, r1
20008638:	20400001 	subcs	r0, r0, r1
2000863c:	21822003 	orrcs	r2, r2, r3
20008640:	e15000a1 	cmp	r0, r1, lsr #1
20008644:	204000a1 	subcs	r0, r0, r1, lsr #1
20008648:	218220a3 	orrcs	r2, r2, r3, lsr #1
2000864c:	e1500121 	cmp	r0, r1, lsr #2
20008650:	20400121 	subcs	r0, r0, r1, lsr #2
20008654:	21822123 	orrcs	r2, r2, r3, lsr #2
20008658:	e15001a1 	cmp	r0, r1, lsr #3
2000865c:	204001a1 	subcs	r0, r0, r1, lsr #3
20008660:	218221a3 	orrcs	r2, r2, r3, lsr #3
20008664:	e3500000 	cmp	r0, #0
20008668:	11b03223 	lsrsne	r3, r3, #4
2000866c:	11a01221 	lsrne	r1, r1, #4
20008670:	1affffef 	bne	20008634 <Loop3>

20008674 <Lgot_result>:
20008674:	e1a00002 	mov	r0, r2
20008678:	e1a0f00e 	mov	pc, lr

2000867c <Ldiv0>:
2000867c:	e52de004 	push	{lr}		; (str lr, [sp, #-4]!)
20008680:	eb0000c8 	bl	200089a8 <__div0>
20008684:	e3a00000 	mov	r0, #0
20008688:	e8bd8000 	ldmfd	sp!, {pc}

2000868c <__aeabi_uidivmod>:
2000868c:	e92d5003 	push	{r0, r1, ip, lr}
20008690:	ebffffd7 	bl	200085f4 <__udivsi3>
20008694:	e8bd5006 	pop	{r1, r2, ip, lr}
20008698:	e0030290 	mul	r3, r0, r2
2000869c:	e0411003 	sub	r1, r1, r3
200086a0:	e1a0f00e 	mov	pc, lr

200086a4 <__aeabi_idivmod>:
200086a4:	e92d5003 	push	{r0, r1, ip, lr}
200086a8:	eb000074 	bl	20008880 <__aeabi_idiv>
200086ac:	e8bd5006 	pop	{r1, r2, ip, lr}
200086b0:	e0030290 	mul	r3, r0, r2
200086b4:	e0411003 	sub	r1, r1, r3
200086b8:	e1a0f00e 	mov	pc, lr

200086bc <__umodsi3>:
200086bc:	e3510000 	cmp	r1, #0
200086c0:	0a000026 	beq	20008760 <Ldiv0>
200086c4:	e3a03001 	mov	r3, #1
200086c8:	e1500001 	cmp	r0, r1
200086cc:	31a0f00e 	movcc	pc, lr

200086d0 <Loop1>:
200086d0:	e3510201 	cmp	r1, #268435456	; 0x10000000
200086d4:	31510000 	cmpcc	r1, r0
200086d8:	31a01201 	lslcc	r1, r1, #4
200086dc:	31a03203 	lslcc	r3, r3, #4
200086e0:	3afffffa 	bcc	200086d0 <Loop1>

200086e4 <Lbignum>:
200086e4:	e3510102 	cmp	r1, #-2147483648	; 0x80000000
200086e8:	31510000 	cmpcc	r1, r0
200086ec:	31a01081 	lslcc	r1, r1, #1
200086f0:	31a03083 	lslcc	r3, r3, #1
200086f4:	3afffffa 	bcc	200086e4 <Lbignum>

200086f8 <Loop3>:
200086f8:	e3a02000 	mov	r2, #0
200086fc:	e1500001 	cmp	r0, r1
20008700:	20400001 	subcs	r0, r0, r1
20008704:	e15000a1 	cmp	r0, r1, lsr #1
20008708:	204000a1 	subcs	r0, r0, r1, lsr #1
2000870c:	218220e3 	orrcs	r2, r2, r3, ror #1
20008710:	e1500121 	cmp	r0, r1, lsr #2
20008714:	20400121 	subcs	r0, r0, r1, lsr #2
20008718:	21822163 	orrcs	r2, r2, r3, ror #2
2000871c:	e15001a1 	cmp	r0, r1, lsr #3
20008720:	204001a1 	subcs	r0, r0, r1, lsr #3
20008724:	218221e3 	orrcs	r2, r2, r3, ror #3
20008728:	e1a0c003 	mov	ip, r3
2000872c:	e3500000 	cmp	r0, #0
20008730:	11b03223 	lsrsne	r3, r3, #4
20008734:	11a01221 	lsrne	r1, r1, #4
20008738:	1affffee 	bne	200086f8 <Loop3>
2000873c:	e212220e 	ands	r2, r2, #-536870912	; 0xe0000000
20008740:	01a0f00e 	moveq	pc, lr
20008744:	e11201ec 	tst	r2, ip, ror #3
20008748:	108001a1 	addne	r0, r0, r1, lsr #3
2000874c:	e112016c 	tst	r2, ip, ror #2
20008750:	10800121 	addne	r0, r0, r1, lsr #2
20008754:	e11200ec 	tst	r2, ip, ror #1
20008758:	108000a1 	addne	r0, r0, r1, lsr #1
2000875c:	e1a0f00e 	mov	pc, lr

20008760 <Ldiv0>:
20008760:	e52de004 	push	{lr}		; (str lr, [sp, #-4]!)
20008764:	eb00008f 	bl	200089a8 <__div0>
20008768:	e3a00000 	mov	r0, #0
2000876c:	e8bd8000 	ldmfd	sp!, {pc}
	...

20008780 <__modsi3>:
20008780:	e3510000 	cmp	r1, #0
20008784:	0a000032 	beq	20008854 <Ldiv0>
20008788:	42611000 	rsbmi	r1, r1, #0
2000878c:	e1b0c000 	movs	ip, r0
20008790:	42600000 	rsbmi	r0, r0, #0
20008794:	e2512001 	subs	r2, r1, #1
20008798:	11500001 	cmpne	r0, r1
2000879c:	03a00000 	moveq	r0, #0
200087a0:	81110002 	tsthi	r1, r2
200087a4:	00000002 	andeq	r0, r0, r2
200087a8:	9a000026 	bls	20008848 <__modsi3+0xc8>
200087ac:	e3a02000 	mov	r2, #0
200087b0:	e3510201 	cmp	r1, #268435456	; 0x10000000
200087b4:	31510000 	cmpcc	r1, r0
200087b8:	31a01201 	lslcc	r1, r1, #4
200087bc:	32822004 	addcc	r2, r2, #4
200087c0:	3afffffa 	bcc	200087b0 <__modsi3+0x30>
200087c4:	e3510102 	cmp	r1, #-2147483648	; 0x80000000
200087c8:	31510000 	cmpcc	r1, r0
200087cc:	31a01081 	lslcc	r1, r1, #1
200087d0:	32822001 	addcc	r2, r2, #1
200087d4:	3afffffa 	bcc	200087c4 <__modsi3+0x44>
200087d8:	e2522003 	subs	r2, r2, #3
200087dc:	ba00000e 	blt	2000881c <__modsi3+0x9c>
200087e0:	e1500001 	cmp	r0, r1
200087e4:	20400001 	subcs	r0, r0, r1
200087e8:	e15000a1 	cmp	r0, r1, lsr #1
200087ec:	204000a1 	subcs	r0, r0, r1, lsr #1
200087f0:	e1500121 	cmp	r0, r1, lsr #2
200087f4:	20400121 	subcs	r0, r0, r1, lsr #2
200087f8:	e15001a1 	cmp	r0, r1, lsr #3
200087fc:	204001a1 	subcs	r0, r0, r1, lsr #3
20008800:	e3500001 	cmp	r0, #1
20008804:	e1a01221 	lsr	r1, r1, #4
20008808:	a2522004 	subsge	r2, r2, #4
2000880c:	aafffff3 	bge	200087e0 <__modsi3+0x60>
20008810:	e3120003 	tst	r2, #3
20008814:	13300000 	teqne	r0, #0
20008818:	0a00000a 	beq	20008848 <__modsi3+0xc8>
2000881c:	e3720002 	cmn	r2, #2
20008820:	ba000006 	blt	20008840 <__modsi3+0xc0>
20008824:	0a000002 	beq	20008834 <__modsi3+0xb4>
20008828:	e1500001 	cmp	r0, r1
2000882c:	20400001 	subcs	r0, r0, r1
20008830:	e1a010a1 	lsr	r1, r1, #1
20008834:	e1500001 	cmp	r0, r1
20008838:	20400001 	subcs	r0, r0, r1
2000883c:	e1a010a1 	lsr	r1, r1, #1
20008840:	e1500001 	cmp	r0, r1
20008844:	20400001 	subcs	r0, r0, r1
20008848:	e35c0000 	cmp	ip, #0
2000884c:	42600000 	rsbmi	r0, r0, #0
20008850:	e1a0f00e 	mov	pc, lr

20008854 <Ldiv0>:
20008854:	e52de004 	push	{lr}		; (str lr, [sp, #-4]!)
20008858:	eb000052 	bl	200089a8 <__div0>
2000885c:	e3a00000 	mov	r0, #0
20008860:	e49df004 	pop	{pc}		; (ldr pc, [sp], #4)
	...

20008880 <__aeabi_idiv>:
20008880:	e3510000 	cmp	r1, #0
20008884:	e020c001 	eor	ip, r0, r1
20008888:	0a000042 	beq	20008998 <Ldiv0>
2000888c:	42611000 	rsbmi	r1, r1, #0
20008890:	e2512001 	subs	r2, r1, #1
20008894:	0a000027 	beq	20008938 <__aeabi_idiv+0xb8>
20008898:	e1b03000 	movs	r3, r0
2000889c:	42603000 	rsbmi	r3, r0, #0
200088a0:	e1530001 	cmp	r3, r1
200088a4:	9a000026 	bls	20008944 <__aeabi_idiv+0xc4>
200088a8:	e1110002 	tst	r1, r2
200088ac:	0a000028 	beq	20008954 <__aeabi_idiv+0xd4>
200088b0:	e311020e 	tst	r1, #-536870912	; 0xe0000000
200088b4:	01a01181 	lsleq	r1, r1, #3
200088b8:	03a02008 	moveq	r2, #8
200088bc:	13a02001 	movne	r2, #1
200088c0:	e3510201 	cmp	r1, #268435456	; 0x10000000
200088c4:	31510003 	cmpcc	r1, r3
200088c8:	31a01201 	lslcc	r1, r1, #4
200088cc:	31a02202 	lslcc	r2, r2, #4
200088d0:	3afffffa 	bcc	200088c0 <__aeabi_idiv+0x40>
200088d4:	e3510102 	cmp	r1, #-2147483648	; 0x80000000
200088d8:	31510003 	cmpcc	r1, r3
200088dc:	31a01081 	lslcc	r1, r1, #1
200088e0:	31a02082 	lslcc	r2, r2, #1
200088e4:	3afffffa 	bcc	200088d4 <__aeabi_idiv+0x54>
200088e8:	e3a00000 	mov	r0, #0
200088ec:	e1530001 	cmp	r3, r1
200088f0:	20433001 	subcs	r3, r3, r1
200088f4:	21800002 	orrcs	r0, r0, r2
200088f8:	e15300a1 	cmp	r3, r1, lsr #1
200088fc:	204330a1 	subcs	r3, r3, r1, lsr #1
20008900:	218000a2 	orrcs	r0, r0, r2, lsr #1
20008904:	e1530121 	cmp	r3, r1, lsr #2
20008908:	20433121 	subcs	r3, r3, r1, lsr #2
2000890c:	21800122 	orrcs	r0, r0, r2, lsr #2
20008910:	e15301a1 	cmp	r3, r1, lsr #3
20008914:	204331a1 	subcs	r3, r3, r1, lsr #3
20008918:	218001a2 	orrcs	r0, r0, r2, lsr #3
2000891c:	e3530000 	cmp	r3, #0
20008920:	11b02222 	lsrsne	r2, r2, #4
20008924:	11a01221 	lsrne	r1, r1, #4
20008928:	1affffef 	bne	200088ec <__aeabi_idiv+0x6c>
2000892c:	e35c0000 	cmp	ip, #0
20008930:	42600000 	rsbmi	r0, r0, #0
20008934:	e1a0f00e 	mov	pc, lr
20008938:	e13c0000 	teq	ip, r0
2000893c:	42600000 	rsbmi	r0, r0, #0
20008940:	e1a0f00e 	mov	pc, lr
20008944:	33a00000 	movcc	r0, #0
20008948:	01a00fcc 	asreq	r0, ip, #31
2000894c:	03800001 	orreq	r0, r0, #1
20008950:	e1a0f00e 	mov	pc, lr
20008954:	e3510801 	cmp	r1, #65536	; 0x10000
20008958:	21a01821 	lsrcs	r1, r1, #16
2000895c:	23a02010 	movcs	r2, #16
20008960:	33a02000 	movcc	r2, #0
20008964:	e3510c01 	cmp	r1, #256	; 0x100
20008968:	21a01421 	lsrcs	r1, r1, #8
2000896c:	22822008 	addcs	r2, r2, #8
20008970:	e3510010 	cmp	r1, #16
20008974:	21a01221 	lsrcs	r1, r1, #4
20008978:	22822004 	addcs	r2, r2, #4
2000897c:	e3510004 	cmp	r1, #4
20008980:	82822003 	addhi	r2, r2, #3
20008984:	908220a1 	addls	r2, r2, r1, lsr #1
20008988:	e35c0000 	cmp	ip, #0
2000898c:	e1a00233 	lsr	r0, r3, r2
20008990:	42600000 	rsbmi	r0, r0, #0
20008994:	e1a0f00e 	mov	pc, lr

20008998 <Ldiv0>:
20008998:	e52de004 	push	{lr}		; (str lr, [sp, #-4]!)
2000899c:	eb000001 	bl	200089a8 <__div0>
200089a0:	e3a00000 	mov	r0, #0
200089a4:	e49df004 	pop	{pc}		; (ldr pc, [sp], #4)

200089a8 <__div0>:
200089a8:	e12fff1e 	bx	lr

200089ac <uart_putchar>:
200089ac:	e92d4038 	push	{r3, r4, r5, lr}
200089b0:	e1a04001 	mov	r4, r1
200089b4:	e1a05000 	mov	r5, r0
200089b8:	ebfffeee 	bl	20008578 <uart_send_byte>
200089bc:	e354000a 	cmp	r4, #10
200089c0:	18bd8038 	popne	{r3, r4, r5, pc}
200089c4:	e1a00005 	mov	r0, r5
200089c8:	e3a0100d 	mov	r1, #13
200089cc:	e8bd4038 	pop	{r3, r4, r5, lr}
200089d0:	eafffee8 	b	20008578 <uart_send_byte>

200089d4 <uart_put_hex.constprop.1>:
200089d4:	e92d4070 	push	{r4, r5, r6, lr}
200089d8:	e2516000 	subs	r6, r1, #0
200089dc:	e1a03220 	lsr	r3, r0, #4
200089e0:	e200400f 	and	r4, r0, #15
200089e4:	1a000008 	bne	20008a0c <uart_put_hex.constprop.1+0x38>
200089e8:	e30c5e6c 	movw	r5, #52844	; 0xce6c
200089ec:	e1a00006 	mov	r0, r6
200089f0:	e3425000 	movt	r5, #8192	; 0x2000
200089f4:	e7d51003 	ldrb	r1, [r5, r3]
200089f8:	ebffffeb 	bl	200089ac <uart_putchar>
200089fc:	e1a00006 	mov	r0, r6
20008a00:	e7d51004 	ldrb	r1, [r5, r4]
20008a04:	e8bd4070 	pop	{r4, r5, r6, lr}
20008a08:	eaffffe7 	b	200089ac <uart_putchar>
20008a0c:	e30c5e58 	movw	r5, #52824	; 0xce58
20008a10:	e3a00000 	mov	r0, #0
20008a14:	e3425000 	movt	r5, #8192	; 0x2000
20008a18:	e7d51003 	ldrb	r1, [r5, r3]
20008a1c:	ebffffe2 	bl	200089ac <uart_putchar>
20008a20:	e7d51004 	ldrb	r1, [r5, r4]
20008a24:	e3a00000 	mov	r0, #0
20008a28:	e8bd4070 	pop	{r4, r5, r6, lr}
20008a2c:	eaffffde 	b	200089ac <uart_putchar>

20008a30 <uart_getchar>:
20008a30:	e92d4008 	push	{r3, lr}
20008a34:	ebfffedc 	bl	200085ac <uart_recv_byte>
20008a38:	e8bd8008 	pop	{r3, pc}

20008a3c <uart_puts>:
20008a3c:	e92d4038 	push	{r3, r4, r5, lr}
20008a40:	e1a04001 	mov	r4, r1
20008a44:	e5d11000 	ldrb	r1, [r1]
20008a48:	e1a05000 	mov	r5, r0
20008a4c:	e3510000 	cmp	r1, #0
20008a50:	08bd8038 	popeq	{r3, r4, r5, pc}
20008a54:	e1a00005 	mov	r0, r5
20008a58:	ebffffd3 	bl	200089ac <uart_putchar>
20008a5c:	e5f41001 	ldrb	r1, [r4, #1]!
20008a60:	e3510000 	cmp	r1, #0
20008a64:	1afffffa 	bne	20008a54 <uart_puts+0x18>
20008a68:	e8bd8038 	pop	{r3, r4, r5, pc}

20008a6c <printk>:
20008a6c:	e92d000f 	push	{r0, r1, r2, r3}
20008a70:	e92d43f0 	push	{r4, r5, r6, r7, r8, r9, lr}
20008a74:	e24dd014 	sub	sp, sp, #20
20008a78:	eb000096 	bl	20008cd8 <raw_local_fiqirq_disable>
20008a7c:	e30c5ccd 	movw	r5, #52429	; 0xcccd
20008a80:	e59d3030 	ldr	r3, [sp, #48]	; 0x30
20008a84:	e28d7034 	add	r7, sp, #52	; 0x34
20008a88:	e34c5ccc 	movt	r5, #52428	; 0xcccc
20008a8c:	e1a06000 	mov	r6, r0
20008a90:	e5d31000 	ldrb	r1, [r3]
20008a94:	e3510000 	cmp	r1, #0
20008a98:	0a00003b 	beq	20008b8c <printk+0x120>
20008a9c:	e3510025 	cmp	r1, #37	; 0x25
20008aa0:	e2834001 	add	r4, r3, #1
20008aa4:	e58d4030 	str	r4, [sp, #48]	; 0x30
20008aa8:	1a000079 	bne	20008c94 <printk+0x228>
20008aac:	e5d32001 	ldrb	r2, [r3, #1]
20008ab0:	e2834002 	add	r4, r3, #2
20008ab4:	e58d4030 	str	r4, [sp, #48]	; 0x30
20008ab8:	e2423058 	sub	r3, r2, #88	; 0x58
20008abc:	e3530020 	cmp	r3, #32
20008ac0:	979ff103 	ldrls	pc, [pc, r3, lsl #2]
20008ac4:	ea00004b 	b	20008bf8 <printk+0x18c>
20008ac8:	20008b4c 	andcs	r8, r0, ip, asr #22
20008acc:	20008bf8 	strdcs	r8, [r0], -r8	; <UNPREDICTABLE>
20008ad0:	20008bf8 	strdcs	r8, [r0], -r8	; <UNPREDICTABLE>
20008ad4:	20008bf8 	strdcs	r8, [r0], -r8	; <UNPREDICTABLE>
20008ad8:	20008bf8 	strdcs	r8, [r0], -r8	; <UNPREDICTABLE>
20008adc:	20008bf8 	strdcs	r8, [r0], -r8	; <UNPREDICTABLE>
20008ae0:	20008bf8 	strdcs	r8, [r0], -r8	; <UNPREDICTABLE>
20008ae4:	20008bf8 	strdcs	r8, [r0], -r8	; <UNPREDICTABLE>
20008ae8:	20008bf8 	strdcs	r8, [r0], -r8	; <UNPREDICTABLE>
20008aec:	20008bf8 	strdcs	r8, [r0], -r8	; <UNPREDICTABLE>
20008af0:	20008bf8 	strdcs	r8, [r0], -r8	; <UNPREDICTABLE>
20008af4:	20008c78 	andcs	r8, r0, r8, ror ip
20008af8:	20008c00 	andcs	r8, r0, r0, lsl #24
20008afc:	20008bf8 	strdcs	r8, [r0], -r8	; <UNPREDICTABLE>
20008b00:	20008bf8 	strdcs	r8, [r0], -r8	; <UNPREDICTABLE>
20008b04:	20008bf8 	strdcs	r8, [r0], -r8	; <UNPREDICTABLE>
20008b08:	20008bf8 	strdcs	r8, [r0], -r8	; <UNPREDICTABLE>
20008b0c:	20008bf8 	strdcs	r8, [r0], -r8	; <UNPREDICTABLE>
20008b10:	20008bf8 	strdcs	r8, [r0], -r8	; <UNPREDICTABLE>
20008b14:	20008bf8 	strdcs	r8, [r0], -r8	; <UNPREDICTABLE>
20008b18:	20008bf8 	strdcs	r8, [r0], -r8	; <UNPREDICTABLE>
20008b1c:	20008bf8 	strdcs	r8, [r0], -r8	; <UNPREDICTABLE>
20008b20:	20008bf8 	strdcs	r8, [r0], -r8	; <UNPREDICTABLE>
20008b24:	20008bf8 	strdcs	r8, [r0], -r8	; <UNPREDICTABLE>
20008b28:	20008bf8 	strdcs	r8, [r0], -r8	; <UNPREDICTABLE>
20008b2c:	20008bf8 	strdcs	r8, [r0], -r8	; <UNPREDICTABLE>
20008b30:	20008bf8 	strdcs	r8, [r0], -r8	; <UNPREDICTABLE>
20008b34:	20008bd0 	ldrdcs	r8, [r0], -r0
20008b38:	20008bf8 	strdcs	r8, [r0], -r8	; <UNPREDICTABLE>
20008b3c:	20008c00 	andcs	r8, r0, r0, lsl #24
20008b40:	20008bf8 	strdcs	r8, [r0], -r8	; <UNPREDICTABLE>
20008b44:	20008bf8 	strdcs	r8, [r0], -r8	; <UNPREDICTABLE>
20008b48:	20008ba0 	andcs	r8, r0, r0, lsr #23
20008b4c:	e5978000 	ldr	r8, [r7]
20008b50:	e3a09000 	mov	r9, #0
20008b54:	e2877004 	add	r7, r7, #4
20008b58:	e1b00c28 	lsrs	r0, r8, #24
20008b5c:	1a000014 	bne	20008bb4 <printk+0x148>
20008b60:	e1b00828 	lsrs	r0, r8, #16
20008b64:	1a000052 	bne	20008cb4 <printk+0x248>
20008b68:	e1b00428 	lsrs	r0, r8, #8
20008b6c:	1a00004c 	bne	20008ca4 <printk+0x238>
20008b70:	e1a01009 	mov	r1, r9
20008b74:	e6ef0078 	uxtb	r0, r8
20008b78:	ebffff95 	bl	200089d4 <uart_put_hex.constprop.1>
20008b7c:	e1a03004 	mov	r3, r4
20008b80:	e5d31000 	ldrb	r1, [r3]
20008b84:	e3510000 	cmp	r1, #0
20008b88:	1affffc3 	bne	20008a9c <printk+0x30>
20008b8c:	e129f006 	msr	CPSR_fc, r6
20008b90:	e28dd014 	add	sp, sp, #20
20008b94:	e8bd43f0 	pop	{r4, r5, r6, r7, r8, r9, lr}
20008b98:	e28dd010 	add	sp, sp, #16
20008b9c:	e12fff1e 	bx	lr
20008ba0:	e5978000 	ldr	r8, [r7]
20008ba4:	e3a09001 	mov	r9, #1
20008ba8:	e2877004 	add	r7, r7, #4
20008bac:	e1b00c28 	lsrs	r0, r8, #24
20008bb0:	0affffea 	beq	20008b60 <printk+0xf4>
20008bb4:	e1a01009 	mov	r1, r9
20008bb8:	ebffff85 	bl	200089d4 <uart_put_hex.constprop.1>
20008bbc:	e7e70858 	ubfx	r0, r8, #16, #8
20008bc0:	e1a01009 	mov	r1, r9
20008bc4:	ebffff82 	bl	200089d4 <uart_put_hex.constprop.1>
20008bc8:	e7e70458 	ubfx	r0, r8, #8, #8
20008bcc:	ea000035 	b	20008ca8 <printk+0x23c>
20008bd0:	e5978000 	ldr	r8, [r7]
20008bd4:	e2877004 	add	r7, r7, #4
20008bd8:	e5d81000 	ldrb	r1, [r8]
20008bdc:	e3510000 	cmp	r1, #0
20008be0:	0a000004 	beq	20008bf8 <printk+0x18c>
20008be4:	e3a00000 	mov	r0, #0
20008be8:	ebffff6f 	bl	200089ac <uart_putchar>
20008bec:	e5f81001 	ldrb	r1, [r8, #1]!
20008bf0:	e3510000 	cmp	r1, #0
20008bf4:	1afffffa 	bne	20008be4 <printk+0x178>
20008bf8:	e1a03004 	mov	r3, r4
20008bfc:	eaffffa3 	b	20008a90 <printk+0x24>
20008c00:	e5970000 	ldr	r0, [r7]
20008c04:	e2877004 	add	r7, r7, #4
20008c08:	e3500000 	cmp	r0, #0
20008c0c:	13a03000 	movne	r3, #0
20008c10:	0a00002c 	beq	20008cc8 <printk+0x25c>
20008c14:	e0898590 	umull	r8, r9, r0, r5
20008c18:	e28d2010 	add	r2, sp, #16
20008c1c:	e082c003 	add	ip, r2, r3
20008c20:	e2833001 	add	r3, r3, #1
20008c24:	e6ef3073 	uxtb	r3, r3
20008c28:	e1a021a9 	lsr	r2, r9, #3
20008c2c:	e0821102 	add	r1, r2, r2, lsl #2
20008c30:	e0401081 	sub	r1, r0, r1, lsl #1
20008c34:	e2520000 	subs	r0, r2, #0
20008c38:	e54c100c 	strb	r1, [ip, #-12]
20008c3c:	1afffff4 	bne	20008c14 <printk+0x1a8>
20008c40:	e2538001 	subs	r8, r3, #1
20008c44:	228d2004 	addcs	r2, sp, #4
20008c48:	20829003 	addcs	r9, r2, r3
20008c4c:	3affffe9 	bcc	20008bf8 <printk+0x18c>
20008c50:	e5791001 	ldrb	r1, [r9, #-1]!
20008c54:	e2488001 	sub	r8, r8, #1
20008c58:	e3a00000 	mov	r0, #0
20008c5c:	e2811030 	add	r1, r1, #48	; 0x30
20008c60:	e6ef1071 	uxtb	r1, r1
20008c64:	ebffff50 	bl	200089ac <uart_putchar>
20008c68:	e3780001 	cmn	r8, #1
20008c6c:	1afffff7 	bne	20008c50 <printk+0x1e4>
20008c70:	e1a03004 	mov	r3, r4
20008c74:	eaffff85 	b	20008a90 <printk+0x24>
20008c78:	e2878004 	add	r8, r7, #4
20008c7c:	e5d71000 	ldrb	r1, [r7]
20008c80:	e3a00000 	mov	r0, #0
20008c84:	ebffff48 	bl	200089ac <uart_putchar>
20008c88:	e1a07008 	mov	r7, r8
20008c8c:	e1a03004 	mov	r3, r4
20008c90:	eaffff7e 	b	20008a90 <printk+0x24>
20008c94:	e3a00000 	mov	r0, #0
20008c98:	ebffff43 	bl	200089ac <uart_putchar>
20008c9c:	e1a03004 	mov	r3, r4
20008ca0:	eaffff7a 	b	20008a90 <printk+0x24>
20008ca4:	e6ef0070 	uxtb	r0, r0
20008ca8:	e1a01009 	mov	r1, r9
20008cac:	ebffff48 	bl	200089d4 <uart_put_hex.constprop.1>
20008cb0:	eaffffae 	b	20008b70 <printk+0x104>
20008cb4:	e6ef0070 	uxtb	r0, r0
20008cb8:	e1a01009 	mov	r1, r9
20008cbc:	ebffff44 	bl	200089d4 <uart_put_hex.constprop.1>
20008cc0:	e7e70458 	ubfx	r0, r8, #8, #8
20008cc4:	eafffff7 	b	20008ca8 <printk+0x23c>
20008cc8:	e3a01030 	mov	r1, #48	; 0x30
20008ccc:	ebfffe29 	bl	20008578 <uart_send_byte>
20008cd0:	e1a03004 	mov	r3, r4
20008cd4:	eaffff6d 	b	20008a90 <printk+0x24>

20008cd8 <raw_local_fiqirq_disable>:
20008cd8:	e10f3000 	mrs	r3, CPSR
20008cdc:	e1a00003 	mov	r0, r3
20008ce0:	e38330c0 	orr	r3, r3, #192	; 0xc0
20008ce4:	e129f003 	msr	CPSR_fc, r3
20008ce8:	e12fff1e 	bx	lr

20008cec <raw_local_fiq_disable>:
20008cec:	e10f3000 	mrs	r3, CPSR
20008cf0:	e1a00003 	mov	r0, r3
20008cf4:	e3833040 	orr	r3, r3, #64	; 0x40
20008cf8:	e129f003 	msr	CPSR_fc, r3
20008cfc:	e12fff1e 	bx	lr

20008d00 <raw_local_irq_disable>:
20008d00:	e10f3000 	mrs	r3, CPSR
20008d04:	e1a00003 	mov	r0, r3
20008d08:	e3833080 	orr	r3, r3, #128	; 0x80
20008d0c:	e129f003 	msr	CPSR_fc, r3
20008d10:	e12fff1e 	bx	lr

20008d14 <hal_board_dscp_init>:
20008d14:	e92d4038 	push	{r3, r4, r5, lr}
20008d18:	e30f32ec 	movw	r3, #62188	; 0xf2ec
20008d1c:	e3a05000 	mov	r5, #0
20008d20:	e3423000 	movt	r3, #8192	; 0x2000
20008d24:	e5835000 	str	r5, [r3]
20008d28:	e30f1bec 	movw	r1, #64492	; 0xfbec
20008d2c:	e30c0e80 	movw	r0, #52864	; 0xce80
20008d30:	e3421000 	movt	r1, #8192	; 0x2000
20008d34:	e2812eff 	add	r2, r1, #4080	; 0xff0
20008d38:	e282200f 	add	r2, r2, #15
20008d3c:	e3420000 	movt	r0, #8192	; 0x2000
20008d40:	e3c22eff 	bic	r2, r2, #4080	; 0xff0
20008d44:	e3084000 	movw	r4, #32768	; 0x8000
20008d48:	e3c2200f 	bic	r2, r2, #15
20008d4c:	e30deb88 	movw	lr, #56200	; 0xdb88
20008d50:	e5832014 	str	r2, [r3, #20]
20008d54:	e30dcb98 	movw	ip, #56216	; 0xdb98
20008d58:	e3a02001 	mov	r2, #1
20008d5c:	e5832020 	str	r2, [r3, #32]
20008d60:	e2832004 	add	r2, r3, #4
20008d64:	e5832004 	str	r2, [r3, #4]
20008d68:	e5832008 	str	r2, [r3, #8]
20008d6c:	e342e000 	movt	lr, #8192	; 0x2000
20008d70:	e5831010 	str	r1, [r3, #16]
20008d74:	e3424000 	movt	r4, #8192	; 0x2000
20008d78:	e5835018 	str	r5, [r3, #24]
20008d7c:	e342c000 	movt	ip, #8192	; 0x2000
20008d80:	e583400c 	str	r4, [r3, #12]
20008d84:	e3a04090 	mov	r4, #144	; 0x90
20008d88:	e583e01c 	str	lr, [r3, #28]
20008d8c:	e583c024 	str	ip, [r3, #36]	; 0x24
20008d90:	e5834028 	str	r4, [r3, #40]	; 0x28
20008d94:	ebffff34 	bl	20008a6c <printk>
20008d98:	e30c0eb8 	movw	r0, #52920	; 0xceb8
20008d9c:	e1a01004 	mov	r1, r4
20008da0:	e3420000 	movt	r0, #8192	; 0x2000
20008da4:	e8bd4038 	pop	{r3, r4, r5, lr}
20008da8:	eaffff2f 	b	20008a6c <printk>

20008dac <hal_board_dscp_print>:
20008dac:	e92d40f0 	push	{r4, r5, r6, r7, lr}
20008db0:	e30f62ec 	movw	r6, #62188	; 0xf2ec
20008db4:	e3426000 	movt	r6, #8192	; 0x2000
20008db8:	e30c0ec8 	movw	r0, #52936	; 0xcec8
20008dbc:	e24dd00c 	sub	sp, sp, #12
20008dc0:	e3420000 	movt	r0, #8192	; 0x2000
20008dc4:	e5961000 	ldr	r1, [r6]
20008dc8:	e3014be4 	movw	r4, #7140	; 0x1be4
20008dcc:	ebffff26 	bl	20008a6c <printk>
20008dd0:	e1a02006 	mov	r2, r6
20008dd4:	e5b21004 	ldr	r1, [r2, #4]!
20008dd8:	e30c0ed8 	movw	r0, #52952	; 0xced8
20008ddc:	e5963008 	ldr	r3, [r6, #8]
20008de0:	e3420000 	movt	r0, #8192	; 0x2000
20008de4:	e30175e0 	movw	r7, #5600	; 0x15e0
20008de8:	e58d1000 	str	r1, [sp]
20008dec:	e8920006 	ldm	r2, {r1, r2}
20008df0:	ebffff1d 	bl	20008a6c <printk>
20008df4:	e30c0f04 	movw	r0, #52996	; 0xcf04
20008df8:	e596100c 	ldr	r1, [r6, #12]
20008dfc:	e3420000 	movt	r0, #8192	; 0x2000
20008e00:	ebffff19 	bl	20008a6c <printk>
20008e04:	e30c0f20 	movw	r0, #53024	; 0xcf20
20008e08:	e5961010 	ldr	r1, [r6, #16]
20008e0c:	e3420000 	movt	r0, #8192	; 0x2000
20008e10:	ebffff15 	bl	20008a6c <printk>
20008e14:	e30c0f3c 	movw	r0, #53052	; 0xcf3c
20008e18:	e5961014 	ldr	r1, [r6, #20]
20008e1c:	e3420000 	movt	r0, #8192	; 0x2000
20008e20:	ebffff11 	bl	20008a6c <printk>
20008e24:	e30c0f54 	movw	r0, #53076	; 0xcf54
20008e28:	e5961018 	ldr	r1, [r6, #24]
20008e2c:	e3420000 	movt	r0, #8192	; 0x2000
20008e30:	ebffff0d 	bl	20008a6c <printk>
20008e34:	e30c0f68 	movw	r0, #53096	; 0xcf68
20008e38:	e596101c 	ldr	r1, [r6, #28]
20008e3c:	e3420000 	movt	r0, #8192	; 0x2000
20008e40:	ebffff09 	bl	20008a6c <printk>
20008e44:	e30c0f84 	movw	r0, #53124	; 0xcf84
20008e48:	e5961020 	ldr	r1, [r6, #32]
20008e4c:	e3420000 	movt	r0, #8192	; 0x2000
20008e50:	ebffff05 	bl	20008a6c <printk>
20008e54:	e30c0f98 	movw	r0, #53144	; 0xcf98
20008e58:	e3420000 	movt	r0, #8192	; 0x2000
20008e5c:	e3a0101c 	mov	r1, #28
20008e60:	ebffff01 	bl	20008a6c <printk>
20008e64:	e30f3218 	movw	r3, #61976	; 0xf218
20008e68:	e3423000 	movt	r3, #8192	; 0x2000
20008e6c:	e59350d0 	ldr	r5, [r3, #208]	; 0xd0
20008e70:	e596c014 	ldr	ip, [r6, #20]
20008e74:	e30c0fb0 	movw	r0, #53168	; 0xcfb0
20008e78:	e3420000 	movt	r0, #8192	; 0x2000
20008e7c:	e08cc004 	add	ip, ip, r4
20008e80:	e244401c 	sub	r4, r4, #28
20008e84:	e59ce014 	ldr	lr, [ip, #20]
20008e88:	e1a0300c 	mov	r3, ip
20008e8c:	e59c100c 	ldr	r1, [ip, #12]
20008e90:	e59c2010 	ldr	r2, [ip, #16]
20008e94:	e58de000 	str	lr, [sp]
20008e98:	e59cc018 	ldr	ip, [ip, #24]
20008e9c:	e58dc004 	str	ip, [sp, #4]
20008ea0:	ebfffef1 	bl	20008a6c <printk>
20008ea4:	e30c0ff8 	movw	r0, #53240	; 0xcff8
20008ea8:	e1a01005 	mov	r1, r5
20008eac:	e3420000 	movt	r0, #8192	; 0x2000
20008eb0:	ebfffeed 	bl	20008a6c <printk>
20008eb4:	e1540007 	cmp	r4, r7
20008eb8:	e5955004 	ldr	r5, [r5, #4]
20008ebc:	1affffeb 	bne	20008e70 <hal_board_dscp_print+0xc4>
20008ec0:	e28dd00c 	add	sp, sp, #12
20008ec4:	e8bd80f0 	pop	{r4, r5, r6, r7, pc}

20008ec8 <hal_allocblks.part.0>:
20008ec8:	e3530000 	cmp	r3, #0
20008ecc:	e92d41f0 	push	{r4, r5, r6, r7, r8, lr}
20008ed0:	e59d6018 	ldr	r6, [sp, #24]
20008ed4:	0a00001a 	beq	20008f44 <hal_allocblks.part.0+0x7c>
20008ed8:	e593c010 	ldr	ip, [r3, #16]
20008edc:	e283e010 	add	lr, r3, #16
20008ee0:	e15e000c 	cmp	lr, ip
20008ee4:	0a000042 	beq	20008ff4 <hal_allocblks.part.0+0x12c>
20008ee8:	e5938018 	ldr	r8, [r3, #24]
20008eec:	e283e018 	add	lr, r3, #24
20008ef0:	e15e0008 	cmp	lr, r8
20008ef4:	0a000045 	beq	20009010 <hal_allocblks.part.0+0x148>
20008ef8:	e3580000 	cmp	r8, #0
20008efc:	0a000010 	beq	20008f44 <hal_allocblks.part.0+0x7c>
20008f00:	e1a04002 	mov	r4, r2
20008f04:	e1a05001 	mov	r5, r1
20008f08:	e1a07000 	mov	r7, r0
20008f0c:	ebffff71 	bl	20008cd8 <raw_local_fiqirq_disable>
20008f10:	e3540000 	cmp	r4, #0
20008f14:	0a00000a 	beq	20008f44 <hal_allocblks.part.0+0x7c>
20008f18:	e598e014 	ldr	lr, [r8, #20]
20008f1c:	e21e2001 	ands	r2, lr, #1
20008f20:	0a000009 	beq	20008f4c <hal_allocblks.part.0+0x84>
20008f24:	e3a03000 	mov	r3, #0
20008f28:	ea000001 	b	20008f34 <hal_allocblks.part.0+0x6c>
20008f2c:	e31c0001 	tst	ip, #1
20008f30:	0a000006 	beq	20008f50 <hal_allocblks.part.0+0x88>
20008f34:	e2833001 	add	r3, r3, #1
20008f38:	e1530004 	cmp	r3, r4
20008f3c:	e1a0c33e 	lsr	ip, lr, r3
20008f40:	1afffff9 	bne	20008f2c <hal_allocblks.part.0+0x64>
20008f44:	e3a00000 	mov	r0, #0
20008f48:	e8bd81f0 	pop	{r4, r5, r6, r7, r8, pc}
20008f4c:	e1a03002 	mov	r3, r2
20008f50:	e598200c 	ldr	r2, [r8, #12]
20008f54:	e5961004 	ldr	r1, [r6, #4]
20008f58:	e0212391 	mla	r1, r1, r3, r2
20008f5c:	e1520001 	cmp	r2, r1
20008f60:	8afffff7 	bhi	20008f44 <hal_allocblks.part.0+0x7c>
20008f64:	e5982010 	ldr	r2, [r8, #16]
20008f68:	e1510002 	cmp	r1, r2
20008f6c:	8afffff4 	bhi	20008f44 <hal_allocblks.part.0+0x7c>
20008f70:	e3a0c001 	mov	ip, #1
20008f74:	e5982018 	ldr	r2, [r8, #24]
20008f78:	e18e331c 	orr	r3, lr, ip, lsl r3
20008f7c:	e5883014 	str	r3, [r8, #20]
20008f80:	e0033005 	and	r3, r3, r5
20008f84:	e3c220f0 	bic	r2, r2, #240	; 0xf0
20008f88:	e1550003 	cmp	r5, r3
20008f8c:	e1877002 	orr	r7, r7, r2
20008f90:	e5982004 	ldr	r2, [r8, #4]
20008f94:	e5887018 	str	r7, [r8, #24]
20008f98:	0a00000b 	beq	20008fcc <hal_allocblks.part.0+0x104>
20008f9c:	e598c000 	ldr	ip, [r8]
20008fa0:	e286e010 	add	lr, r6, #16
20008fa4:	e58c2004 	str	r2, [ip, #4]
20008fa8:	e5963014 	ldr	r3, [r6, #20]
20008fac:	e582c000 	str	ip, [r2]
20008fb0:	e5868014 	str	r8, [r6, #20]
20008fb4:	e5883004 	str	r3, [r8, #4]
20008fb8:	e588e000 	str	lr, [r8]
20008fbc:	e5838000 	str	r8, [r3]
20008fc0:	e129f000 	msr	CPSR_fc, r0
20008fc4:	e1a00001 	mov	r0, r1
20008fc8:	e8bd81f0 	pop	{r4, r5, r6, r7, r8, pc}
20008fcc:	e598c000 	ldr	ip, [r8]
20008fd0:	e286e008 	add	lr, r6, #8
20008fd4:	e58c2004 	str	r2, [ip, #4]
20008fd8:	e596300c 	ldr	r3, [r6, #12]
20008fdc:	e582c000 	str	ip, [r2]
20008fe0:	e586800c 	str	r8, [r6, #12]
20008fe4:	e5883004 	str	r3, [r8, #4]
20008fe8:	e588e000 	str	lr, [r8]
20008fec:	e5838000 	str	r8, [r3]
20008ff0:	eafffff2 	b	20008fc0 <hal_allocblks.part.0+0xf8>
20008ff4:	e593e014 	ldr	lr, [r3, #20]
20008ff8:	e5938018 	ldr	r8, [r3, #24]
20008ffc:	e15c000e 	cmp	ip, lr
20009000:	e283e018 	add	lr, r3, #24
20009004:	03a0c000 	moveq	ip, #0
20009008:	e15e0008 	cmp	lr, r8
2000900c:	1affffb9 	bne	20008ef8 <hal_allocblks.part.0+0x30>
20009010:	e593301c 	ldr	r3, [r3, #28]
20009014:	e15e0003 	cmp	lr, r3
20009018:	11a0800e 	movne	r8, lr
2000901c:	1affffb7 	bne	20008f00 <hal_allocblks.part.0+0x38>
20009020:	e1a0800c 	mov	r8, ip
20009024:	eaffffb3 	b	20008ef8 <hal_allocblks.part.0+0x30>

20009028 <hal_freeblks.constprop.7>:
20009028:	e3520000 	cmp	r2, #0
2000902c:	0a00004f 	beq	20009170 <hal_freeblks.constprop.7+0x148>
20009030:	e5923010 	ldr	r3, [r2, #16]
20009034:	e92d41f0 	push	{r4, r5, r6, r7, r8, lr}
20009038:	e282e010 	add	lr, r2, #16
2000903c:	e15e0003 	cmp	lr, r3
20009040:	1a000001 	bne	2000904c <hal_freeblks.constprop.7+0x24>
20009044:	ea000041 	b	20009150 <hal_freeblks.constprop.7+0x128>
20009048:	e1a0300c 	mov	r3, ip
2000904c:	e593c010 	ldr	ip, [r3, #16]
20009050:	e150000c 	cmp	r0, ip
20009054:	2a000002 	bcs	20009064 <hal_freeblks.constprop.7+0x3c>
20009058:	e593c00c 	ldr	ip, [r3, #12]
2000905c:	e150000c 	cmp	r0, ip
20009060:	2a000040 	bcs	20009168 <hal_freeblks.constprop.7+0x140>
20009064:	e593c000 	ldr	ip, [r3]
20009068:	e15e000c 	cmp	lr, ip
2000906c:	1afffff5 	bne	20009048 <hal_freeblks.constprop.7+0x20>
20009070:	e592c008 	ldr	ip, [r2, #8]
20009074:	e282e008 	add	lr, r2, #8
20009078:	e15e000c 	cmp	lr, ip
2000907c:	1a000001 	bne	20009088 <hal_freeblks.constprop.7+0x60>
20009080:	ea000038 	b	20009168 <hal_freeblks.constprop.7+0x140>
20009084:	e1a0c003 	mov	ip, r3
20009088:	e59c3010 	ldr	r3, [ip, #16]
2000908c:	e1500003 	cmp	r0, r3
20009090:	2a000002 	bcs	200090a0 <hal_freeblks.constprop.7+0x78>
20009094:	e59c300c 	ldr	r3, [ip, #12]
20009098:	e1500003 	cmp	r0, r3
2000909c:	2a000002 	bcs	200090ac <hal_freeblks.constprop.7+0x84>
200090a0:	e59c3000 	ldr	r3, [ip]
200090a4:	e15e0003 	cmp	lr, r3
200090a8:	1afffff5 	bne	20009084 <hal_freeblks.constprop.7+0x5c>
200090ac:	e1a0400c 	mov	r4, ip
200090b0:	e1a08002 	mov	r8, r2
200090b4:	e1a05001 	mov	r5, r1
200090b8:	e1a06000 	mov	r6, r0
200090bc:	ebffff05 	bl	20008cd8 <raw_local_fiqirq_disable>
200090c0:	e5981004 	ldr	r1, [r8, #4]
200090c4:	e1a07000 	mov	r7, r0
200090c8:	e594000c 	ldr	r0, [r4, #12]
200090cc:	e0600006 	rsb	r0, r0, r6
200090d0:	ebfffd47 	bl	200085f4 <__udivsi3>
200090d4:	e350001f 	cmp	r0, #31
200090d8:	e1a03000 	mov	r3, r0
200090dc:	8a00001f 	bhi	20009160 <hal_freeblks.constprop.7+0x138>
200090e0:	e5942014 	ldr	r2, [r4, #20]
200090e4:	e1a01032 	lsr	r1, r2, r0
200090e8:	e3110001 	tst	r1, #1
200090ec:	0a00001b 	beq	20009160 <hal_freeblks.constprop.7+0x138>
200090f0:	e3a00001 	mov	r0, #1
200090f4:	e1c23310 	bic	r3, r2, r0, lsl r3
200090f8:	e5843014 	str	r3, [r4, #20]
200090fc:	e1130005 	tst	r3, r5
20009100:	1a00000f 	bne	20009144 <hal_freeblks.constprop.7+0x11c>
20009104:	e5942018 	ldr	r2, [r4, #24]
20009108:	e30f3218 	movw	r3, #61976	; 0xf218
2000910c:	e5941004 	ldr	r1, [r4, #4]
20009110:	e3423000 	movt	r3, #8192	; 0x2000
20009114:	e5940000 	ldr	r0, [r4]
20009118:	e3c220f0 	bic	r2, r2, #240	; 0xf0
2000911c:	e3822060 	orr	r2, r2, #96	; 0x60
20009120:	e5842018 	str	r2, [r4, #24]
20009124:	e283c0cc 	add	ip, r3, #204	; 0xcc
20009128:	e5801004 	str	r1, [r0, #4]
2000912c:	e59320d0 	ldr	r2, [r3, #208]	; 0xd0
20009130:	e5810000 	str	r0, [r1]
20009134:	e58340d0 	str	r4, [r3, #208]	; 0xd0
20009138:	e5842004 	str	r2, [r4, #4]
2000913c:	e584c000 	str	ip, [r4]
20009140:	e5824000 	str	r4, [r2]
20009144:	e129f007 	msr	CPSR_fc, r7
20009148:	e3a00001 	mov	r0, #1
2000914c:	e8bd81f0 	pop	{r4, r5, r6, r7, r8, pc}
20009150:	e592c008 	ldr	ip, [r2, #8]
20009154:	e282e008 	add	lr, r2, #8
20009158:	e15e000c 	cmp	lr, ip
2000915c:	1affffc9 	bne	20009088 <hal_freeblks.constprop.7+0x60>
20009160:	e3a00000 	mov	r0, #0
20009164:	e8bd81f0 	pop	{r4, r5, r6, r7, r8, pc}
20009168:	e1a04003 	mov	r4, r3
2000916c:	eaffffcf 	b	200090b0 <hal_freeblks.constprop.7+0x88>
20009170:	e3a00000 	mov	r0, #0
20009174:	e12fff1e 	bx	lr

20009178 <mmap_dscp_init>:
20009178:	e92d4010 	push	{r4, lr}
2000917c:	e280e008 	add	lr, r0, #8
20009180:	e59dc008 	ldr	ip, [sp, #8]
20009184:	e3a04000 	mov	r4, #0
20009188:	e58e4000 	str	r4, [lr]
2000918c:	e5800000 	str	r0, [r0]
20009190:	e5800004 	str	r0, [r0, #4]
20009194:	e580100c 	str	r1, [r0, #12]
20009198:	e5802010 	str	r2, [r0, #16]
2000919c:	e5803014 	str	r3, [r0, #20]
200091a0:	e580c018 	str	ip, [r0, #24]
200091a4:	e8bd8010 	pop	{r4, pc}

200091a8 <mmap_tlb_init>:
200091a8:	e52de004 	push	{lr}		; (str lr, [sp, #-4]!)
200091ac:	e3a01000 	mov	r1, #0
200091b0:	e2803008 	add	r3, r0, #8
200091b4:	e5831000 	str	r1, [r3]
200091b8:	e2803014 	add	r3, r0, #20
200091bc:	e280e0d4 	add	lr, r0, #212	; 0xd4
200091c0:	e1a0c001 	mov	ip, r1
200091c4:	e3a02802 	mov	r2, #131072	; 0x20000
200091c8:	e5800000 	str	r0, [r0]
200091cc:	e5800004 	str	r0, [r0, #4]
200091d0:	e580100c 	str	r1, [r0, #12]
200091d4:	e5801010 	str	r1, [r0, #16]
200091d8:	e583c000 	str	ip, [r3]
200091dc:	e2831008 	add	r1, r3, #8
200091e0:	e5832004 	str	r2, [r3, #4]
200091e4:	e2830010 	add	r0, r3, #16
200091e8:	e5831008 	str	r1, [r3, #8]
200091ec:	e583100c 	str	r1, [r3, #12]
200091f0:	e2831018 	add	r1, r3, #24
200091f4:	e5830010 	str	r0, [r3, #16]
200091f8:	e2833020 	add	r3, r3, #32
200091fc:	e503000c 	str	r0, [r3, #-12]
20009200:	e1a02082 	lsl	r2, r2, #1
20009204:	e5031008 	str	r1, [r3, #-8]
20009208:	e5031004 	str	r1, [r3, #-4]
2000920c:	e153000e 	cmp	r3, lr
20009210:	1afffff0 	bne	200091d8 <mmap_tlb_init+0x30>
20009214:	e49df004 	pop	{pc}		; (ldr pc, [sp], #4)

20009218 <bd_dscp_insert_tlb>:
20009218:	e5903018 	ldr	r3, [r0, #24]
2000921c:	e3520002 	cmp	r2, #2
20009220:	e7e33253 	ubfx	r3, r3, #4, #4
20009224:	0a000016 	beq	20009284 <bd_dscp_insert_tlb+0x6c>
20009228:	e3520003 	cmp	r2, #3
2000922c:	0a00000a 	beq	2000925c <bd_dscp_insert_tlb+0x44>
20009230:	e3520001 	cmp	r2, #1
20009234:	112fff1e 	bxne	lr
20009238:	e2433001 	sub	r3, r3, #1
2000923c:	e1a02283 	lsl	r2, r3, #5
20009240:	e081c002 	add	ip, r1, r2
20009244:	e28c202c 	add	r2, ip, #44	; 0x2c
20009248:	e59c3030 	ldr	r3, [ip, #48]	; 0x30
2000924c:	e58c0030 	str	r0, [ip, #48]	; 0x30
20009250:	e880000c 	stm	r0, {r2, r3}
20009254:	e5830000 	str	r0, [r3]
20009258:	e12fff1e 	bx	lr
2000925c:	e2433001 	sub	r3, r3, #1
20009260:	e1a03283 	lsl	r3, r3, #5
20009264:	e081c003 	add	ip, r1, r3
20009268:	e28c301c 	add	r3, ip, #28
2000926c:	e59c2020 	ldr	r2, [ip, #32]
20009270:	e58c0020 	str	r0, [ip, #32]
20009274:	e5803000 	str	r3, [r0]
20009278:	e5802004 	str	r2, [r0, #4]
2000927c:	e5820000 	str	r0, [r2]
20009280:	e12fff1e 	bx	lr
20009284:	e0813283 	add	r3, r1, r3, lsl #5
20009288:	e2831004 	add	r1, r3, #4
2000928c:	e5932008 	ldr	r2, [r3, #8]
20009290:	e5830008 	str	r0, [r3, #8]
20009294:	e8800006 	stm	r0, {r1, r2}
20009298:	e5820000 	str	r0, [r2]
2000929c:	e12fff1e 	bx	lr

200092a0 <hal_mm_init>:
200092a0:	e92d41f0 	push	{r4, r5, r6, r7, r8, lr}
200092a4:	e30f42ec 	movw	r4, #62188	; 0xf2ec
200092a8:	e3424000 	movt	r4, #8192	; 0x2000
200092ac:	e5942020 	ldr	r2, [r4, #32]
200092b0:	e594c01c 	ldr	ip, [r4, #28]
200092b4:	e3520000 	cmp	r2, #0
200092b8:	0a00004f 	beq	200093fc <hal_mm_init+0x15c>
200092bc:	e3a05000 	mov	r5, #0
200092c0:	e5941014 	ldr	r1, [r4, #20]
200092c4:	e08c7202 	add	r7, ip, r2, lsl #4
200092c8:	e1a06005 	mov	r6, r5
200092cc:	e3a08068 	mov	r8, #104	; 0x68
200092d0:	ea000002 	b	200092e0 <hal_mm_init+0x40>
200092d4:	e28cc010 	add	ip, ip, #16
200092d8:	e15c0007 	cmp	ip, r7
200092dc:	0a00001f 	beq	20009360 <hal_mm_init+0xc0>
200092e0:	e59c3000 	ldr	r3, [ip]
200092e4:	e3530002 	cmp	r3, #2
200092e8:	1afffff9 	bne	200092d4 <hal_mm_init+0x34>
200092ec:	e59c2008 	ldr	r2, [ip, #8]
200092f0:	e59ce00c 	ldr	lr, [ip, #12]
200092f4:	e152000e 	cmp	r2, lr
200092f8:	2afffff5 	bcs	200092d4 <hal_mm_init+0x34>
200092fc:	e0653185 	rsb	r3, r5, r5, lsl #3
20009300:	e0813103 	add	r3, r1, r3, lsl #2
20009304:	e2833008 	add	r3, r3, #8
20009308:	e2820501 	add	r0, r2, #4194304	; 0x400000
2000930c:	e242137f 	sub	r1, r2, #-67108863	; 0xfc000001
20009310:	e15e0000 	cmp	lr, r0
20009314:	e241150f 	sub	r1, r1, #62914560	; 0x3c00000
20009318:	31a0100e 	movcc	r1, lr
2000931c:	e5836000 	str	r6, [r3]
20009320:	e15e0000 	cmp	lr, r0
20009324:	e5832004 	str	r2, [r3, #4]
20009328:	e5831008 	str	r1, [r3, #8]
2000932c:	e2855001 	add	r5, r5, #1
20009330:	e2431008 	sub	r1, r3, #8
20009334:	e583600c 	str	r6, [r3, #12]
20009338:	e5838010 	str	r8, [r3, #16]
2000933c:	e1a02000 	mov	r2, r0
20009340:	e5031008 	str	r1, [r3, #-8]
20009344:	e283301c 	add	r3, r3, #28
20009348:	e5031020 	str	r1, [r3, #-32]	; 0xffffffe0
2000934c:	8affffed 	bhi	20009308 <hal_mm_init+0x68>
20009350:	e28cc010 	add	ip, ip, #16
20009354:	e5941014 	ldr	r1, [r4, #20]
20009358:	e15c0007 	cmp	ip, r7
2000935c:	1affffdf 	bne	200092e0 <hal_mm_init+0x40>
20009360:	e0653185 	rsb	r3, r5, r5, lsl #3
20009364:	e30f0218 	movw	r0, #61976	; 0xf218
20009368:	e3420000 	movt	r0, #8192	; 0x2000
2000936c:	e5845018 	str	r5, [r4, #24]
20009370:	e0813103 	add	r3, r1, r3, lsl #2
20009374:	e5843010 	str	r3, [r4, #16]
20009378:	ebffff8a 	bl	200091a8 <mmap_tlb_init>
2000937c:	e3550001 	cmp	r5, #1
20009380:	9a00000b 	bls	200093b4 <hal_mm_init+0x114>
20009384:	e3a0701c 	mov	r7, #28
20009388:	e3a06001 	mov	r6, #1
2000938c:	e5940014 	ldr	r0, [r4, #20]
20009390:	e30f1218 	movw	r1, #61976	; 0xf218
20009394:	e2866001 	add	r6, r6, #1
20009398:	e3421000 	movt	r1, #8192	; 0x2000
2000939c:	e0800007 	add	r0, r0, r7
200093a0:	e3a02001 	mov	r2, #1
200093a4:	ebffff9b 	bl	20009218 <bd_dscp_insert_tlb>
200093a8:	e1560005 	cmp	r6, r5
200093ac:	e287701c 	add	r7, r7, #28
200093b0:	1afffff5 	bne	2000938c <hal_mm_init+0xec>
200093b4:	e594100c 	ldr	r1, [r4, #12]
200093b8:	e30f32ec 	movw	r3, #62188	; 0xf2ec
200093bc:	e5942010 	ldr	r2, [r4, #16]
200093c0:	e3423000 	movt	r3, #8192	; 0x2000
200093c4:	e0610002 	rsb	r0, r1, r2
200093c8:	e3500501 	cmp	r0, #4194304	; 0x400000
200093cc:	8a000006 	bhi	200093ec <hal_mm_init+0x14c>
200093d0:	e5933014 	ldr	r3, [r3, #20]
200093d4:	e593000c 	ldr	r0, [r3, #12]
200093d8:	e1510000 	cmp	r1, r0
200093dc:	3a000002 	bcc	200093ec <hal_mm_init+0x14c>
200093e0:	e5931010 	ldr	r1, [r3, #16]
200093e4:	e1520001 	cmp	r2, r1
200093e8:	9a00000a 	bls	20009418 <hal_mm_init+0x178>
200093ec:	e30d000c 	movw	r0, #53260	; 0xd00c
200093f0:	e3420000 	movt	r0, #8192	; 0x2000
200093f4:	ebfffd9c 	bl	20008a6c <printk>
200093f8:	eafffffe 	b	200093f8 <hal_mm_init+0x158>
200093fc:	e5943014 	ldr	r3, [r4, #20]
20009400:	e30f0218 	movw	r0, #61976	; 0xf218
20009404:	e3420000 	movt	r0, #8192	; 0x2000
20009408:	e5842018 	str	r2, [r4, #24]
2000940c:	e5843010 	str	r3, [r4, #16]
20009410:	ebffff64 	bl	200091a8 <mmap_tlb_init>
20009414:	eaffffe6 	b	200093b4 <hal_mm_init+0x114>
20009418:	e30f2218 	movw	r2, #61976	; 0xf218
2000941c:	e3a01001 	mov	r1, #1
20009420:	e3422000 	movt	r2, #8192	; 0x2000
20009424:	e5831014 	str	r1, [r3, #20]
20009428:	e59210c0 	ldr	r1, [r2, #192]	; 0xc0
2000942c:	e3a0c068 	mov	ip, #104	; 0x68
20009430:	e28200bc 	add	r0, r2, #188	; 0xbc
20009434:	e583c018 	str	ip, [r3, #24]
20009438:	e58230c0 	str	r3, [r2, #192]	; 0xc0
2000943c:	e8830003 	stm	r3, {r0, r1}
20009440:	e5813000 	str	r3, [r1]
20009444:	e8bd81f0 	pop	{r4, r5, r6, r7, r8, pc}

20009448 <hal_memallocblks>:
20009448:	e2403802 	sub	r3, r0, #131072	; 0x20000
2000944c:	e3d33802 	bics	r3, r3, #131072	; 0x20000
20009450:	e92d4030 	push	{r4, r5, lr}
20009454:	e24dd00c 	sub	sp, sp, #12
20009458:	0a000002 	beq	20009468 <hal_memallocblks+0x20>
2000945c:	e2403702 	sub	r3, r0, #524288	; 0x80000
20009460:	e3d33702 	bics	r3, r3, #524288	; 0x80000
20009464:	1a00001c 	bne	200094dc <hal_memallocblks+0x94>
20009468:	e1a04000 	mov	r4, r0
2000946c:	ebfffe19 	bl	20008cd8 <raw_local_fiqirq_disable>
20009470:	e30fc218 	movw	ip, #61976	; 0xf218
20009474:	e3a03000 	mov	r3, #0
20009478:	e342c000 	movt	ip, #8192	; 0x2000
2000947c:	e1a0200c 	mov	r2, ip
20009480:	e1a05000 	mov	r5, r0
20009484:	e5921018 	ldr	r1, [r2, #24]
20009488:	e2822020 	add	r2, r2, #32
2000948c:	e1540001 	cmp	r4, r1
20009490:	0a00002f 	beq	20009554 <hal_memallocblks+0x10c>
20009494:	e2833001 	add	r3, r3, #1
20009498:	e3530006 	cmp	r3, #6
2000949c:	1afffff8 	bne	20009484 <hal_memallocblks+0x3c>
200094a0:	e3a0c000 	mov	ip, #0
200094a4:	e1a0300c 	mov	r3, ip
200094a8:	e3540702 	cmp	r4, #524288	; 0x80000
200094ac:	0a000047 	beq	200095d0 <hal_memallocblks+0x188>
200094b0:	9a00000f 	bls	200094f4 <hal_memallocblks+0xac>
200094b4:	e3540602 	cmp	r4, #2097152	; 0x200000
200094b8:	0a00004a 	beq	200095e8 <hal_memallocblks+0x1a0>
200094bc:	e3540501 	cmp	r4, #4194304	; 0x400000
200094c0:	0a000017 	beq	20009524 <hal_memallocblks+0xdc>
200094c4:	e3540601 	cmp	r4, #1048576	; 0x100000
200094c8:	0a00004c 	beq	20009600 <hal_memallocblks+0x1b8>
200094cc:	e3a00000 	mov	r0, #0
200094d0:	e129f005 	msr	CPSR_fc, r5
200094d4:	e28dd00c 	add	sp, sp, #12
200094d8:	e8bd8030 	pop	{r4, r5, pc}
200094dc:	e2403602 	sub	r3, r0, #2097152	; 0x200000
200094e0:	e3d33602 	bics	r3, r3, #2097152	; 0x200000
200094e4:	13a00000 	movne	r0, #0
200094e8:	0affffde 	beq	20009468 <hal_memallocblks+0x20>
200094ec:	e28dd00c 	add	sp, sp, #12
200094f0:	e8bd8030 	pop	{r4, r5, pc}
200094f4:	e3540802 	cmp	r4, #131072	; 0x20000
200094f8:	0a00000f 	beq	2000953c <hal_memallocblks+0xf4>
200094fc:	e3540701 	cmp	r4, #262144	; 0x40000
20009500:	1afffff1 	bne	200094cc <hal_memallocblks+0x84>
20009504:	e58dc000 	str	ip, [sp]
20009508:	e3a00020 	mov	r0, #32
2000950c:	e30f1fff 	movw	r1, #65535	; 0xffff
20009510:	e3a02010 	mov	r2, #16
20009514:	ebfffe6b 	bl	20008ec8 <hal_allocblks.part.0>
20009518:	e129f005 	msr	CPSR_fc, r5
2000951c:	e28dd00c 	add	sp, sp, #12
20009520:	e8bd8030 	pop	{r4, r5, pc}
20009524:	e3a01001 	mov	r1, #1
20009528:	e58dc000 	str	ip, [sp]
2000952c:	e1a02001 	mov	r2, r1
20009530:	e3a00060 	mov	r0, #96	; 0x60
20009534:	ebfffe63 	bl	20008ec8 <hal_allocblks.part.0>
20009538:	eafffff6 	b	20009518 <hal_memallocblks+0xd0>
2000953c:	e58dc000 	str	ip, [sp]
20009540:	e3e01000 	mvn	r1, #0
20009544:	e3a02020 	mov	r2, #32
20009548:	e3a00010 	mov	r0, #16
2000954c:	ebfffe5d 	bl	20008ec8 <hal_allocblks.part.0>
20009550:	eafffff0 	b	20009518 <hal_memallocblks+0xd0>
20009554:	e1a01283 	lsl	r1, r3, #5
20009558:	e08c3283 	add	r3, ip, r3, lsl #5
2000955c:	e08cc001 	add	ip, ip, r1
20009560:	e2833024 	add	r3, r3, #36	; 0x24
20009564:	e28cc014 	add	ip, ip, #20
20009568:	e30f2218 	movw	r2, #61976	; 0xf218
2000956c:	e59c0010 	ldr	r0, [ip, #16]
20009570:	e3422000 	movt	r2, #8192	; 0x2000
20009574:	e1530000 	cmp	r3, r0
20009578:	1affffc9 	bne	200094a4 <hal_memallocblks+0x5c>
2000957c:	e59c0014 	ldr	r0, [ip, #20]
20009580:	e1530000 	cmp	r3, r0
20009584:	1affffc6 	bne	200094a4 <hal_memallocblks+0x5c>
20009588:	e0823001 	add	r3, r2, r1
2000958c:	e59c1018 	ldr	r1, [ip, #24]
20009590:	e283302c 	add	r3, r3, #44	; 0x2c
20009594:	e1530001 	cmp	r3, r1
20009598:	1affffc1 	bne	200094a4 <hal_memallocblks+0x5c>
2000959c:	e59c101c 	ldr	r1, [ip, #28]
200095a0:	e1530001 	cmp	r3, r1
200095a4:	1affffbe 	bne	200094a4 <hal_memallocblks+0x5c>
200095a8:	e59210cc 	ldr	r1, [r2, #204]	; 0xcc
200095ac:	e28230cc 	add	r3, r2, #204	; 0xcc
200095b0:	e1510003 	cmp	r1, r3
200095b4:	128230b4 	addne	r3, r2, #180	; 0xb4
200095b8:	1affffba 	bne	200094a8 <hal_memallocblks+0x60>
200095bc:	e59230d0 	ldr	r3, [r2, #208]	; 0xd0
200095c0:	e1530001 	cmp	r3, r1
200095c4:	128230b4 	addne	r3, r2, #180	; 0xb4
200095c8:	01a0300c 	moveq	r3, ip
200095cc:	eaffffb5 	b	200094a8 <hal_memallocblks+0x60>
200095d0:	e58dc000 	str	ip, [sp]
200095d4:	e3a010ff 	mov	r1, #255	; 0xff
200095d8:	e3a02008 	mov	r2, #8
200095dc:	e3a00030 	mov	r0, #48	; 0x30
200095e0:	ebfffe38 	bl	20008ec8 <hal_allocblks.part.0>
200095e4:	eaffffcb 	b	20009518 <hal_memallocblks+0xd0>
200095e8:	e58dc000 	str	ip, [sp]
200095ec:	e3a01003 	mov	r1, #3
200095f0:	e3a02002 	mov	r2, #2
200095f4:	e3a00050 	mov	r0, #80	; 0x50
200095f8:	ebfffe32 	bl	20008ec8 <hal_allocblks.part.0>
200095fc:	eaffffc5 	b	20009518 <hal_memallocblks+0xd0>
20009600:	e58dc000 	str	ip, [sp]
20009604:	e3a0100f 	mov	r1, #15
20009608:	e3a02004 	mov	r2, #4
2000960c:	e3a00040 	mov	r0, #64	; 0x40
20009610:	ebfffe2c 	bl	20008ec8 <hal_allocblks.part.0>
20009614:	eaffffbf 	b	20009518 <hal_memallocblks+0xd0>

20009618 <hal_memfreeblks>:
20009618:	e3500000 	cmp	r0, #0
2000961c:	e92d4070 	push	{r4, r5, r6, lr}
20009620:	0a000017 	beq	20009684 <hal_memfreeblks+0x6c>
20009624:	e2413802 	sub	r3, r1, #131072	; 0x20000
20009628:	e3d33802 	bics	r3, r3, #131072	; 0x20000
2000962c:	0a000005 	beq	20009648 <hal_memfreeblks+0x30>
20009630:	e2413702 	sub	r3, r1, #524288	; 0x80000
20009634:	e3d33702 	bics	r3, r3, #524288	; 0x80000
20009638:	0a000002 	beq	20009648 <hal_memfreeblks+0x30>
2000963c:	e2413602 	sub	r3, r1, #2097152	; 0x200000
20009640:	e3d33602 	bics	r3, r3, #2097152	; 0x200000
20009644:	1a00000e 	bne	20009684 <hal_memfreeblks+0x6c>
20009648:	e1a04001 	mov	r4, r1
2000964c:	e1a05000 	mov	r5, r0
20009650:	ebfffda0 	bl	20008cd8 <raw_local_fiqirq_disable>
20009654:	e30fc218 	movw	ip, #61976	; 0xf218
20009658:	e342c000 	movt	ip, #8192	; 0x2000
2000965c:	e3a03000 	mov	r3, #0
20009660:	e1a0200c 	mov	r2, ip
20009664:	e1a06000 	mov	r6, r0
20009668:	e5921018 	ldr	r1, [r2, #24]
2000966c:	e2822020 	add	r2, r2, #32
20009670:	e1540001 	cmp	r4, r1
20009674:	0a000004 	beq	2000968c <hal_memfreeblks+0x74>
20009678:	e2833001 	add	r3, r3, #1
2000967c:	e3530006 	cmp	r3, #6
20009680:	1afffff8 	bne	20009668 <hal_memfreeblks+0x50>
20009684:	e3a00000 	mov	r0, #0
20009688:	e8bd8070 	pop	{r4, r5, r6, pc}
2000968c:	e1a00283 	lsl	r0, r3, #5
20009690:	e08c3283 	add	r3, ip, r3, lsl #5
20009694:	e08c2000 	add	r2, ip, r0
20009698:	e2833024 	add	r3, r3, #36	; 0x24
2000969c:	e2822014 	add	r2, r2, #20
200096a0:	e30f1218 	movw	r1, #61976	; 0xf218
200096a4:	e592c010 	ldr	ip, [r2, #16]
200096a8:	e3421000 	movt	r1, #8192	; 0x2000
200096ac:	e153000c 	cmp	r3, ip
200096b0:	0a000013 	beq	20009704 <hal_memfreeblks+0xec>
200096b4:	e3540702 	cmp	r4, #524288	; 0x80000
200096b8:	0a00001d 	beq	20009734 <hal_memfreeblks+0x11c>
200096bc:	9a000008 	bls	200096e4 <hal_memfreeblks+0xcc>
200096c0:	e3540602 	cmp	r4, #2097152	; 0x200000
200096c4:	0a000022 	beq	20009754 <hal_memfreeblks+0x13c>
200096c8:	e3540501 	cmp	r4, #4194304	; 0x400000
200096cc:	0a00001c 	beq	20009744 <hal_memfreeblks+0x12c>
200096d0:	e3540601 	cmp	r4, #1048576	; 0x100000
200096d4:	0a000022 	beq	20009764 <hal_memfreeblks+0x14c>
200096d8:	e3a00000 	mov	r0, #0
200096dc:	e129f006 	msr	CPSR_fc, r6
200096e0:	e8bd8070 	pop	{r4, r5, r6, pc}
200096e4:	e3540802 	cmp	r4, #131072	; 0x20000
200096e8:	0a000021 	beq	20009774 <hal_memfreeblks+0x15c>
200096ec:	e3540701 	cmp	r4, #262144	; 0x40000
200096f0:	1afffff8 	bne	200096d8 <hal_memfreeblks+0xc0>
200096f4:	e1a00005 	mov	r0, r5
200096f8:	e30f1fff 	movw	r1, #65535	; 0xffff
200096fc:	ebfffe49 	bl	20009028 <hal_freeblks.constprop.7>
20009700:	eafffff5 	b	200096dc <hal_memfreeblks+0xc4>
20009704:	e592c014 	ldr	ip, [r2, #20]
20009708:	e153000c 	cmp	r3, ip
2000970c:	1affffe8 	bne	200096b4 <hal_memfreeblks+0x9c>
20009710:	e0813000 	add	r3, r1, r0
20009714:	e5921008 	ldr	r1, [r2, #8]
20009718:	e283301c 	add	r3, r3, #28
2000971c:	e1530001 	cmp	r3, r1
20009720:	1affffe3 	bne	200096b4 <hal_memfreeblks+0x9c>
20009724:	e592100c 	ldr	r1, [r2, #12]
20009728:	e1530001 	cmp	r3, r1
2000972c:	1affffe0 	bne	200096b4 <hal_memfreeblks+0x9c>
20009730:	eaffffd3 	b	20009684 <hal_memfreeblks+0x6c>
20009734:	e1a00005 	mov	r0, r5
20009738:	e3a010ff 	mov	r1, #255	; 0xff
2000973c:	ebfffe39 	bl	20009028 <hal_freeblks.constprop.7>
20009740:	eaffffe5 	b	200096dc <hal_memfreeblks+0xc4>
20009744:	e1a00005 	mov	r0, r5
20009748:	e3a01001 	mov	r1, #1
2000974c:	ebfffe35 	bl	20009028 <hal_freeblks.constprop.7>
20009750:	eaffffe1 	b	200096dc <hal_memfreeblks+0xc4>
20009754:	e1a00005 	mov	r0, r5
20009758:	e3a01003 	mov	r1, #3
2000975c:	ebfffe31 	bl	20009028 <hal_freeblks.constprop.7>
20009760:	eaffffdd 	b	200096dc <hal_memfreeblks+0xc4>
20009764:	e1a00005 	mov	r0, r5
20009768:	e3a0100f 	mov	r1, #15
2000976c:	ebfffe2d 	bl	20009028 <hal_freeblks.constprop.7>
20009770:	eaffffd9 	b	200096dc <hal_memfreeblks+0xc4>
20009774:	e1a00005 	mov	r0, r5
20009778:	e3e01000 	mvn	r1, #0
2000977c:	ebfffe29 	bl	20009028 <hal_freeblks.constprop.7>
20009780:	eaffffd5 	b	200096dc <hal_memfreeblks+0xc4>

20009784 <blk_print_4M_cnt>:
20009784:	e30f2218 	movw	r2, #61976	; 0xf218
20009788:	e3a00000 	mov	r0, #0
2000978c:	e3422000 	movt	r2, #8192	; 0x2000
20009790:	e5b230cc 	ldr	r3, [r2, #204]!	; 0xcc
20009794:	e1530002 	cmp	r3, r2
20009798:	0a000004 	beq	200097b0 <blk_print_4M_cnt+0x2c>
2000979c:	e5933000 	ldr	r3, [r3]
200097a0:	e2800001 	add	r0, r0, #1
200097a4:	e1530002 	cmp	r3, r2
200097a8:	1afffffb 	bne	2000979c <blk_print_4M_cnt+0x18>
200097ac:	e12fff1e 	bx	lr
200097b0:	e12fff1e 	bx	lr

200097b4 <blk_mem_test2>:
200097b4:	e92d41f0 	push	{r4, r5, r6, r7, r8, lr}
200097b8:	e24dd030 	sub	sp, sp, #48	; 0x30
200097bc:	e3a07000 	mov	r7, #0
200097c0:	e3a04802 	mov	r4, #131072	; 0x20000
200097c4:	e3a05000 	mov	r5, #0
200097c8:	e1a04714 	lsl	r4, r4, r7
200097cc:	e1a00004 	mov	r0, r4
200097d0:	ebffff1c 	bl	20009448 <hal_memallocblks>
200097d4:	e1a02004 	mov	r2, r4
200097d8:	e1a01005 	mov	r1, r5
200097dc:	e1a0c000 	mov	ip, r0
200097e0:	e30d002c 	movw	r0, #53292	; 0xd02c
200097e4:	e1a0300c 	mov	r3, ip
200097e8:	e3420000 	movt	r0, #8192	; 0x2000
200097ec:	e58dc000 	str	ip, [sp]
200097f0:	ebfffc9d 	bl	20008a6c <printk>
200097f4:	e1a00004 	mov	r0, r4
200097f8:	ebffff12 	bl	20009448 <hal_memallocblks>
200097fc:	e1a02004 	mov	r2, r4
20009800:	e3a01001 	mov	r1, #1
20009804:	e1a0c000 	mov	ip, r0
20009808:	e30d002c 	movw	r0, #53292	; 0xd02c
2000980c:	e1a0300c 	mov	r3, ip
20009810:	e3420000 	movt	r0, #8192	; 0x2000
20009814:	e58dc004 	str	ip, [sp, #4]
20009818:	ebfffc93 	bl	20008a6c <printk>
2000981c:	e79d6105 	ldr	r6, [sp, r5, lsl #2]
20009820:	e1a01004 	mov	r1, r4
20009824:	e1a00006 	mov	r0, r6
20009828:	ebffff7a 	bl	20009618 <hal_memfreeblks>
2000982c:	e1a01005 	mov	r1, r5
20009830:	e1a02004 	mov	r2, r4
20009834:	e1a03006 	mov	r3, r6
20009838:	e1a08000 	mov	r8, r0
2000983c:	e3580001 	cmp	r8, #1
20009840:	e30d005c 	movw	r0, #53340	; 0xd05c
20009844:	e3420000 	movt	r0, #8192	; 0x2000
20009848:	1a000021 	bne	200098d4 <blk_mem_test2+0x120>
2000984c:	ebfffc86 	bl	20008a6c <printk>
20009850:	e3550001 	cmp	r5, #1
20009854:	11a05008 	movne	r5, r8
20009858:	1affffef 	bne	2000981c <blk_mem_test2+0x68>
2000985c:	e30d0098 	movw	r0, #53400	; 0xd098
20009860:	e2877001 	add	r7, r7, #1
20009864:	e3420000 	movt	r0, #8192	; 0x2000
20009868:	ebfffc7f 	bl	20008a6c <printk>
2000986c:	e3570006 	cmp	r7, #6
20009870:	1affffd2 	bne	200097c0 <blk_mem_test2+0xc>
20009874:	e3a00802 	mov	r0, #131072	; 0x20000
20009878:	ebfffef2 	bl	20009448 <hal_memallocblks>
2000987c:	e2503000 	subs	r3, r0, #0
20009880:	0a00000f 	beq	200098c4 <blk_mem_test2+0x110>
20009884:	e30f2218 	movw	r2, #61976	; 0xf218
20009888:	e3a01000 	mov	r1, #0
2000988c:	e3422000 	movt	r2, #8192	; 0x2000
20009890:	e5b2c0cc 	ldr	ip, [r2, #204]!	; 0xcc
20009894:	e15c0002 	cmp	ip, r2
20009898:	0a000003 	beq	200098ac <blk_mem_test2+0xf8>
2000989c:	e59cc000 	ldr	ip, [ip]
200098a0:	e2811001 	add	r1, r1, #1
200098a4:	e15c0002 	cmp	ip, r2
200098a8:	1afffffb 	bne	2000989c <blk_mem_test2+0xe8>
200098ac:	e30d0100 	movw	r0, #53504	; 0xd100
200098b0:	e1a02004 	mov	r2, r4
200098b4:	e3420000 	movt	r0, #8192	; 0x2000
200098b8:	e28dd030 	add	sp, sp, #48	; 0x30
200098bc:	e8bd41f0 	pop	{r4, r5, r6, r7, r8, lr}
200098c0:	eafffc69 	b	20008a6c <printk>
200098c4:	e30d00f0 	movw	r0, #53488	; 0xd0f0
200098c8:	e3420000 	movt	r0, #8192	; 0x2000
200098cc:	ebfffc66 	bl	20008a6c <printk>
200098d0:	eafffffe 	b	200098d0 <blk_mem_test2+0x11c>
200098d4:	e30d0088 	movw	r0, #53384	; 0xd088
200098d8:	e3420000 	movt	r0, #8192	; 0x2000
200098dc:	ebfffc62 	bl	20008a6c <printk>
200098e0:	eafffffe 	b	200098e0 <blk_mem_test2+0x12c>

200098e4 <hal_interrupt_init>:
200098e4:	e30f22ec 	movw	r2, #62188	; 0xf2ec
200098e8:	e3a03000 	mov	r3, #0
200098ec:	e3422000 	movt	r2, #8192	; 0x2000
200098f0:	e1a00003 	mov	r0, r3
200098f4:	e5921024 	ldr	r1, [r2, #36]	; 0x24
200098f8:	e1a02001 	mov	r2, r1
200098fc:	e5820000 	str	r0, [r2]
20009900:	e5823018 	str	r3, [r2, #24]
20009904:	e282c004 	add	ip, r2, #4
20009908:	e582301c 	str	r3, [r2, #28]
2000990c:	e2833001 	add	r3, r3, #1
20009910:	e3530020 	cmp	r3, #32
20009914:	e582000c 	str	r0, [r2, #12]
20009918:	e5820010 	str	r0, [r2, #16]
2000991c:	e2822028 	add	r2, r2, #40	; 0x28
20009920:	e5020014 	str	r0, [r2, #-20]	; 0xffffffec
20009924:	e502c024 	str	ip, [r2, #-36]	; 0xffffffdc
20009928:	e502c020 	str	ip, [r2, #-32]	; 0xffffffe0
2000992c:	1afffff2 	bne	200098fc <hal_interrupt_init+0x18>
20009930:	e2812c05 	add	r2, r1, #1280	; 0x500
20009934:	e3a00000 	mov	r0, #0
20009938:	e92d4010 	push	{r4, lr}
2000993c:	e5820000 	str	r0, [r2]
20009940:	e582301c 	str	r3, [r2, #28]
20009944:	e243e020 	sub	lr, r3, #32
20009948:	e2833001 	add	r3, r3, #1
2000994c:	e282c004 	add	ip, r2, #4
20009950:	e3530040 	cmp	r3, #64	; 0x40
20009954:	e582000c 	str	r0, [r2, #12]
20009958:	e5820010 	str	r0, [r2, #16]
2000995c:	e2822028 	add	r2, r2, #40	; 0x28
20009960:	e5020014 	str	r0, [r2, #-20]	; 0xffffffec
20009964:	e502e010 	str	lr, [r2, #-16]
20009968:	e502c024 	str	ip, [r2, #-36]	; 0xffffffdc
2000996c:	e502c020 	str	ip, [r2, #-32]	; 0xffffffe0
20009970:	1afffff1 	bne	2000993c <hal_interrupt_init+0x58>
20009974:	e2812c0a 	add	r2, r1, #2560	; 0xa00
20009978:	e3a00000 	mov	r0, #0
2000997c:	e5820000 	str	r0, [r2]
20009980:	e582301c 	str	r3, [r2, #28]
20009984:	e243e040 	sub	lr, r3, #64	; 0x40
20009988:	e2833001 	add	r3, r3, #1
2000998c:	e282c004 	add	ip, r2, #4
20009990:	e3530060 	cmp	r3, #96	; 0x60
20009994:	e582000c 	str	r0, [r2, #12]
20009998:	e5820010 	str	r0, [r2, #16]
2000999c:	e2822028 	add	r2, r2, #40	; 0x28
200099a0:	e5020014 	str	r0, [r2, #-20]	; 0xffffffec
200099a4:	e502e010 	str	lr, [r2, #-16]
200099a8:	e502c024 	str	ip, [r2, #-36]	; 0xffffffdc
200099ac:	e502c020 	str	ip, [r2, #-32]	; 0xffffffe0
200099b0:	1afffff1 	bne	2000997c <hal_interrupt_init+0x98>
200099b4:	e2812c0f 	add	r2, r1, #3840	; 0xf00
200099b8:	e3a00000 	mov	r0, #0
200099bc:	e5820000 	str	r0, [r2]
200099c0:	e582301c 	str	r3, [r2, #28]
200099c4:	e243e060 	sub	lr, r3, #96	; 0x60
200099c8:	e2833001 	add	r3, r3, #1
200099cc:	e282c004 	add	ip, r2, #4
200099d0:	e3530080 	cmp	r3, #128	; 0x80
200099d4:	e582000c 	str	r0, [r2, #12]
200099d8:	e5820010 	str	r0, [r2, #16]
200099dc:	e2822028 	add	r2, r2, #40	; 0x28
200099e0:	e5020014 	str	r0, [r2, #-20]	; 0xffffffec
200099e4:	e502e010 	str	lr, [r2, #-16]
200099e8:	e502c024 	str	ip, [r2, #-36]	; 0xffffffdc
200099ec:	e502c020 	str	ip, [r2, #-32]	; 0xffffffe0
200099f0:	1afffff1 	bne	200099bc <hal_interrupt_init+0xd8>
200099f4:	e2812b05 	add	r2, r1, #5120	; 0x1400
200099f8:	e3a04001 	mov	r4, #1
200099fc:	e3a01000 	mov	r1, #0
20009a00:	e3a0e000 	mov	lr, #0
20009a04:	e5821000 	str	r1, [r2]
20009a08:	e582301c 	str	r3, [r2, #28]
20009a0c:	e243c080 	sub	ip, r3, #128	; 0x80
20009a10:	e2833001 	add	r3, r3, #1
20009a14:	e2820004 	add	r0, r2, #4
20009a18:	e353008f 	cmp	r3, #143	; 0x8f
20009a1c:	e582100c 	str	r1, [r2, #12]
20009a20:	e5824010 	str	r4, [r2, #16]
20009a24:	e2822028 	add	r2, r2, #40	; 0x28
20009a28:	e5021014 	str	r1, [r2, #-20]	; 0xffffffec
20009a2c:	e502c010 	str	ip, [r2, #-16]
20009a30:	e5020024 	str	r0, [r2, #-36]	; 0xffffffdc
20009a34:	e5020020 	str	r0, [r2, #-32]	; 0xffffffe0
20009a38:	1afffff0 	bne	20009a00 <hal_interrupt_init+0x11c>
20009a3c:	e3a02014 	mov	r2, #20
20009a40:	e3e03000 	mvn	r3, #0
20009a44:	e34f2200 	movt	r2, #61952	; 0xf200
20009a48:	e5823000 	str	r3, [r2]
20009a4c:	e3a02014 	mov	r2, #20
20009a50:	e34f2210 	movt	r2, #61968	; 0xf210
20009a54:	e5823000 	str	r3, [r2]
20009a58:	e3a02014 	mov	r2, #20
20009a5c:	e34f2220 	movt	r2, #61984	; 0xf220
20009a60:	e5823000 	str	r3, [r2]
20009a64:	e3a02014 	mov	r2, #20
20009a68:	e34f2230 	movt	r2, #62000	; 0xf230
20009a6c:	e5823000 	str	r3, [r2]
20009a70:	e3a0300c 	mov	r3, #12
20009a74:	e34f3200 	movt	r3, #61952	; 0xf200
20009a78:	e583e000 	str	lr, [r3]
20009a7c:	e3a0300c 	mov	r3, #12
20009a80:	e34f3210 	movt	r3, #61968	; 0xf210
20009a84:	e583e000 	str	lr, [r3]
20009a88:	e3a0300c 	mov	r3, #12
20009a8c:	e34f3220 	movt	r3, #61984	; 0xf220
20009a90:	e583e000 	str	lr, [r3]
20009a94:	e3a0300c 	mov	r3, #12
20009a98:	e34f3230 	movt	r3, #62000	; 0xf230
20009a9c:	e583e000 	str	lr, [r3]
20009aa0:	e3a03c0f 	mov	r3, #3840	; 0xf00
20009aa4:	e34f3200 	movt	r3, #61952	; 0xf200
20009aa8:	e583e000 	str	lr, [r3]
20009aac:	e3a03c0f 	mov	r3, #3840	; 0xf00
20009ab0:	e34f3210 	movt	r3, #61968	; 0xf210
20009ab4:	e583e000 	str	lr, [r3]
20009ab8:	e3a03c0f 	mov	r3, #3840	; 0xf00
20009abc:	e34f3220 	movt	r3, #61984	; 0xf220
20009ac0:	e583e000 	str	lr, [r3]
20009ac4:	e3a03c0f 	mov	r3, #3840	; 0xf00
20009ac8:	e34f3230 	movt	r3, #62000	; 0xf230
20009acc:	e583e000 	str	lr, [r3]
20009ad0:	e8bd8010 	pop	{r4, pc}

20009ad4 <hal_rtn_intdscp>:
20009ad4:	e30f32ec 	movw	r3, #62188	; 0xf2ec
20009ad8:	e3423000 	movt	r3, #8192	; 0x2000
20009adc:	e5932028 	ldr	r2, [r3, #40]	; 0x28
20009ae0:	e1520000 	cmp	r2, r0
20009ae4:	80800100 	addhi	r0, r0, r0, lsl #2
20009ae8:	85933024 	ldrhi	r3, [r3, #36]	; 0x24
20009aec:	80830180 	addhi	r0, r3, r0, lsl #3
20009af0:	93a00000 	movls	r0, #0
20009af4:	e12fff1e 	bx	lr

20009af8 <hal_rtn_exitregmap>:
20009af8:	e30f32ec 	movw	r3, #62188	; 0xf2ec
20009afc:	e3423000 	movt	r3, #8192	; 0x2000
20009b00:	e5933028 	ldr	r3, [r3, #40]	; 0x28
20009b04:	e1530000 	cmp	r3, r0
20009b08:	9a000010 	bls	20009b50 <hal_rtn_exitregmap+0x58>
20009b0c:	e30dcb38 	movw	ip, #56120	; 0xdb38
20009b10:	e3a03000 	mov	r3, #0
20009b14:	e342c000 	movt	ip, #8192	; 0x2000
20009b18:	e1a0200c 	mov	r2, ip
20009b1c:	e5921000 	ldr	r1, [r2]
20009b20:	e1500001 	cmp	r0, r1
20009b24:	3a000002 	bcc	20009b34 <hal_rtn_exitregmap+0x3c>
20009b28:	e5921004 	ldr	r1, [r2, #4]
20009b2c:	e1500001 	cmp	r0, r1
20009b30:	9a000003 	bls	20009b44 <hal_rtn_exitregmap+0x4c>
20009b34:	e2833001 	add	r3, r3, #1
20009b38:	e2822014 	add	r2, r2, #20
20009b3c:	e3530004 	cmp	r3, #4
20009b40:	1afffff5 	bne	20009b1c <hal_rtn_exitregmap+0x24>
20009b44:	e0833103 	add	r3, r3, r3, lsl #2
20009b48:	e08c0103 	add	r0, ip, r3, lsl #2
20009b4c:	e12fff1e 	bx	lr
20009b50:	e3a00000 	mov	r0, #0
20009b54:	e12fff1e 	bx	lr

20009b58 <hal_exit_mode_init>:
20009b58:	e2403010 	sub	r3, r0, #16
20009b5c:	e353006f 	cmp	r3, #111	; 0x6f
20009b60:	912fff1e 	bxls	lr
20009b64:	e30f32ec 	movw	r3, #62188	; 0xf2ec
20009b68:	e3423000 	movt	r3, #8192	; 0x2000
20009b6c:	e5933028 	ldr	r3, [r3, #40]	; 0x28
20009b70:	e1500003 	cmp	r0, r3
20009b74:	2a000026 	bcs	20009c14 <hal_exit_mode_init+0xbc>
20009b78:	e92d4010 	push	{r4, lr}
20009b7c:	e30deb38 	movw	lr, #56120	; 0xdb38
20009b80:	e342e000 	movt	lr, #8192	; 0x2000
20009b84:	e3a03000 	mov	r3, #0
20009b88:	e1a0200e 	mov	r2, lr
20009b8c:	e592c000 	ldr	ip, [r2]
20009b90:	e150000c 	cmp	r0, ip
20009b94:	3a000002 	bcc	20009ba4 <hal_exit_mode_init+0x4c>
20009b98:	e5924004 	ldr	r4, [r2, #4]
20009b9c:	e1500004 	cmp	r0, r4
20009ba0:	9a000004 	bls	20009bb8 <hal_exit_mode_init+0x60>
20009ba4:	e2833001 	add	r3, r3, #1
20009ba8:	e2822014 	add	r2, r2, #20
20009bac:	e3530004 	cmp	r3, #4
20009bb0:	1afffff5 	bne	20009b8c <hal_exit_mode_init+0x34>
20009bb4:	e59ec050 	ldr	ip, [lr, #80]	; 0x50
20009bb8:	e0833103 	add	r3, r3, r3, lsl #2
20009bbc:	e06c0000 	rsb	r0, ip, r0
20009bc0:	e08e3103 	add	r3, lr, r3, lsl #2
20009bc4:	e593200c 	ldr	r2, [r3, #12]
20009bc8:	e592e000 	ldr	lr, [r2]
20009bcc:	e593c008 	ldr	ip, [r3, #8]
20009bd0:	e3a0400f 	mov	r4, #15
20009bd4:	e00c009c 	mul	ip, ip, r0
20009bd8:	e18ecc14 	orr	ip, lr, r4, lsl ip
20009bdc:	e582c000 	str	ip, [r2]
20009be0:	e593e010 	ldr	lr, [r3, #16]
20009be4:	e59ec000 	ldr	ip, [lr]
20009be8:	e5932008 	ldr	r2, [r3, #8]
20009bec:	e0020092 	mul	r2, r2, r0
20009bf0:	e1cc2214 	bic	r2, ip, r4, lsl r2
20009bf4:	e58e2000 	str	r2, [lr]
20009bf8:	e593c010 	ldr	ip, [r3, #16]
20009bfc:	e59c2000 	ldr	r2, [ip]
20009c00:	e5933008 	ldr	r3, [r3, #8]
20009c04:	e0000093 	mul	r0, r3, r0
20009c08:	e1821011 	orr	r1, r2, r1, lsl r0
20009c0c:	e58c1000 	str	r1, [ip]
20009c10:	e8bd8010 	pop	{r4, pc}
20009c14:	e3a03000 	mov	r3, #0
20009c18:	e5933000 	ldr	r3, [r3]
20009c1c:	e7f000f0 	udf	#0

20009c20 <hal_clear_irqpnd>:
20009c20:	e30f32ec 	movw	r3, #62188	; 0xf2ec
20009c24:	e3423000 	movt	r3, #8192	; 0x2000
20009c28:	e5932028 	ldr	r2, [r3, #40]	; 0x28
20009c2c:	e1500002 	cmp	r0, r2
20009c30:	2a000010 	bcs	20009c78 <hal_clear_irqpnd+0x58>
20009c34:	e0800100 	add	r0, r0, r0, lsl #2
20009c38:	e5933024 	ldr	r3, [r3, #36]	; 0x24
20009c3c:	e0933180 	adds	r3, r3, r0, lsl #3
20009c40:	0a00000c 	beq	20009c78 <hal_clear_irqpnd+0x58>
20009c44:	e5930010 	ldr	r0, [r3, #16]
20009c48:	e5933018 	ldr	r3, [r3, #24]
20009c4c:	e3500000 	cmp	r0, #0
20009c50:	1a00000a 	bne	20009c80 <hal_clear_irqpnd+0x60>
20009c54:	e3530007 	cmp	r3, #7
20009c58:	8a000014 	bhi	20009cb0 <hal_clear_irqpnd+0x90>
20009c5c:	e3a03d3d 	mov	r3, #3904	; 0xf40
20009c60:	e34e3020 	movt	r3, #57376	; 0xe020
20009c64:	e5d32000 	ldrb	r2, [r3]
20009c68:	e6ef2072 	uxtb	r2, r2
20009c6c:	e5832000 	str	r2, [r3]
20009c70:	e3a00001 	mov	r0, #1
20009c74:	e12fff1e 	bx	lr
20009c78:	e3a00000 	mov	r0, #0
20009c7c:	e12fff1e 	bx	lr
20009c80:	e3500001 	cmp	r0, #1
20009c84:	1afffff9 	bne	20009c70 <hal_clear_irqpnd+0x50>
20009c88:	e3530007 	cmp	r3, #7
20009c8c:	9a00001c 	bls	20009d04 <hal_clear_irqpnd+0xe4>
20009c90:	e353000f 	cmp	r3, #15
20009c94:	812fff1e 	bxhi	lr
20009c98:	e3003f4c 	movw	r3, #3916	; 0xf4c
20009c9c:	e34e3020 	movt	r3, #57376	; 0xe020
20009ca0:	e5d32000 	ldrb	r2, [r3]
20009ca4:	e6ef2072 	uxtb	r2, r2
20009ca8:	e5832000 	str	r2, [r3]
20009cac:	e12fff1e 	bx	lr
20009cb0:	e353000f 	cmp	r3, #15
20009cb4:	9a00000b 	bls	20009ce8 <hal_clear_irqpnd+0xc8>
20009cb8:	e2433015 	sub	r3, r3, #21
20009cbc:	e3530005 	cmp	r3, #5
20009cc0:	8affffea 	bhi	20009c70 <hal_clear_irqpnd+0x50>
20009cc4:	e3a03044 	mov	r3, #68	; 0x44
20009cc8:	e34e3250 	movt	r3, #57936	; 0xe250
20009ccc:	e5932000 	ldr	r2, [r3]
20009cd0:	e5832000 	str	r2, [r3]
20009cd4:	e3a03020 	mov	r3, #32
20009cd8:	e34e3260 	movt	r3, #57952	; 0xe260
20009cdc:	e5932000 	ldr	r2, [r3]
20009ce0:	e5832000 	str	r2, [r3]
20009ce4:	eaffffe1 	b	20009c70 <hal_clear_irqpnd+0x50>
20009ce8:	e3003f44 	movw	r3, #3908	; 0xf44
20009cec:	e34e3020 	movt	r3, #57376	; 0xe020
20009cf0:	e5d32000 	ldrb	r2, [r3]
20009cf4:	e6ef2072 	uxtb	r2, r2
20009cf8:	e5832000 	str	r2, [r3]
20009cfc:	e3a00001 	mov	r0, #1
20009d00:	e12fff1e 	bx	lr
20009d04:	e3003f48 	movw	r3, #3912	; 0xf48
20009d08:	e34e3020 	movt	r3, #57376	; 0xe020
20009d0c:	e5d32000 	ldrb	r2, [r3]
20009d10:	e6ef2072 	uxtb	r2, r2
20009d14:	e5832000 	str	r2, [r3]
20009d18:	e12fff1e 	bx	lr

20009d1c <hal_enalbe_irq>:
20009d1c:	e30f32ec 	movw	r3, #62188	; 0xf2ec
20009d20:	e3423000 	movt	r3, #8192	; 0x2000
20009d24:	e5932028 	ldr	r2, [r3, #40]	; 0x28
20009d28:	e1500002 	cmp	r0, r2
20009d2c:	2a000015 	bcs	20009d88 <hal_enalbe_irq+0x6c>
20009d30:	e5933024 	ldr	r3, [r3, #36]	; 0x24
20009d34:	e0802100 	add	r2, r0, r0, lsl #2
20009d38:	e0933182 	adds	r3, r3, r2, lsl #3
20009d3c:	0a000011 	beq	20009d88 <hal_enalbe_irq+0x6c>
20009d40:	e5932010 	ldr	r2, [r3, #16]
20009d44:	e5933018 	ldr	r3, [r3, #24]
20009d48:	e3520000 	cmp	r2, #0
20009d4c:	1a00000f 	bne	20009d90 <hal_enalbe_irq+0x74>
20009d50:	e350001f 	cmp	r0, #31
20009d54:	8a000024 	bhi	20009dec <hal_enalbe_irq+0xd0>
20009d58:	e353000f 	cmp	r3, #15
20009d5c:	8a00001b 	bhi	20009dd0 <hal_enalbe_irq+0xb4>
20009d60:	e3530007 	cmp	r3, #7
20009d64:	8a00003f 	bhi	20009e68 <hal_enalbe_irq+0x14c>
20009d68:	e3a01c0f 	mov	r1, #3840	; 0xf00
20009d6c:	e34e1020 	movt	r1, #57376	; 0xe020
20009d70:	e5910000 	ldr	r0, [r1]
20009d74:	e3a02001 	mov	r2, #1
20009d78:	e1a03312 	lsl	r3, r2, r3
20009d7c:	e1c02003 	bic	r2, r0, r3
20009d80:	e5812000 	str	r2, [r1]
20009d84:	ea000013 	b	20009dd8 <hal_enalbe_irq+0xbc>
20009d88:	e3a00000 	mov	r0, #0
20009d8c:	e12fff1e 	bx	lr
20009d90:	e3520001 	cmp	r2, #1
20009d94:	1a000012 	bne	20009de4 <hal_enalbe_irq+0xc8>
20009d98:	e3530007 	cmp	r3, #7
20009d9c:	9a00001c 	bls	20009e14 <hal_enalbe_irq+0xf8>
20009da0:	e3001f0c 	movw	r1, #3852	; 0xf0c
20009da4:	e34e1020 	movt	r1, #57376	; 0xe020
20009da8:	e5910000 	ldr	r0, [r1]
20009dac:	e2433008 	sub	r3, r3, #8
20009db0:	e1c03312 	bic	r3, r0, r2, lsl r3
20009db4:	e5813000 	str	r3, [r1]
20009db8:	e3a03010 	mov	r3, #16
20009dbc:	e3a02801 	mov	r2, #65536	; 0x10000
20009dc0:	e34f3200 	movt	r3, #61952	; 0xf200
20009dc4:	e5832000 	str	r2, [r3]
20009dc8:	e3a00001 	mov	r0, #1
20009dcc:	e12fff1e 	bx	lr
20009dd0:	e3a02001 	mov	r2, #1
20009dd4:	e1a03312 	lsl	r3, r2, r3
20009dd8:	e3a02010 	mov	r2, #16
20009ddc:	e34f2200 	movt	r2, #61952	; 0xf200
20009de0:	e5823000 	str	r3, [r2]
20009de4:	e3a00001 	mov	r0, #1
20009de8:	e12fff1e 	bx	lr
20009dec:	e350003f 	cmp	r0, #63	; 0x3f
20009df0:	9a00000d 	bls	20009e2c <hal_enalbe_irq+0x110>
20009df4:	e350005f 	cmp	r0, #95	; 0x5f
20009df8:	8a000012 	bhi	20009e48 <hal_enalbe_irq+0x12c>
20009dfc:	e3a02001 	mov	r2, #1
20009e00:	e3a01010 	mov	r1, #16
20009e04:	e34f1220 	movt	r1, #61984	; 0xf220
20009e08:	e1a03312 	lsl	r3, r2, r3
20009e0c:	e5813000 	str	r3, [r1]
20009e10:	eafffff3 	b	20009de4 <hal_enalbe_irq+0xc8>
20009e14:	e3001f08 	movw	r1, #3848	; 0xf08
20009e18:	e34e1020 	movt	r1, #57376	; 0xe020
20009e1c:	e5910000 	ldr	r0, [r1]
20009e20:	e1c03312 	bic	r3, r0, r2, lsl r3
20009e24:	e5813000 	str	r3, [r1]
20009e28:	eaffffe2 	b	20009db8 <hal_enalbe_irq+0x9c>
20009e2c:	e3a02001 	mov	r2, #1
20009e30:	e3a01010 	mov	r1, #16
20009e34:	e34f1210 	movt	r1, #61968	; 0xf210
20009e38:	e1a03312 	lsl	r3, r2, r3
20009e3c:	e5813000 	str	r3, [r1]
20009e40:	e3a00001 	mov	r0, #1
20009e44:	e12fff1e 	bx	lr
20009e48:	e350007f 	cmp	r0, #127	; 0x7f
20009e4c:	8affffe4 	bhi	20009de4 <hal_enalbe_irq+0xc8>
20009e50:	e3a02001 	mov	r2, #1
20009e54:	e3a01010 	mov	r1, #16
20009e58:	e34f1230 	movt	r1, #62000	; 0xf230
20009e5c:	e1a03312 	lsl	r3, r2, r3
20009e60:	e5813000 	str	r3, [r1]
20009e64:	eaffffde 	b	20009de4 <hal_enalbe_irq+0xc8>
20009e68:	e3001f04 	movw	r1, #3844	; 0xf04
20009e6c:	e34e1020 	movt	r1, #57376	; 0xe020
20009e70:	e5910000 	ldr	r0, [r1]
20009e74:	e3a02001 	mov	r2, #1
20009e78:	e243c008 	sub	ip, r3, #8
20009e7c:	e1c00c12 	bic	r0, r0, r2, lsl ip
20009e80:	e5810000 	str	r0, [r1]
20009e84:	e1a03312 	lsl	r3, r2, r3
20009e88:	eaffffd2 	b	20009dd8 <hal_enalbe_irq+0xbc>

20009e8c <hal_disalbe_irq>:
20009e8c:	e30f32ec 	movw	r3, #62188	; 0xf2ec
20009e90:	e3423000 	movt	r3, #8192	; 0x2000
20009e94:	e5932028 	ldr	r2, [r3, #40]	; 0x28
20009e98:	e1500002 	cmp	r0, r2
20009e9c:	2a000015 	bcs	20009ef8 <hal_disalbe_irq+0x6c>
20009ea0:	e5933024 	ldr	r3, [r3, #36]	; 0x24
20009ea4:	e0802100 	add	r2, r0, r0, lsl #2
20009ea8:	e0933182 	adds	r3, r3, r2, lsl #3
20009eac:	0a000011 	beq	20009ef8 <hal_disalbe_irq+0x6c>
20009eb0:	e5932010 	ldr	r2, [r3, #16]
20009eb4:	e5933018 	ldr	r3, [r3, #24]
20009eb8:	e3520000 	cmp	r2, #0
20009ebc:	1a00000f 	bne	20009f00 <hal_disalbe_irq+0x74>
20009ec0:	e350001f 	cmp	r0, #31
20009ec4:	8a000024 	bhi	20009f5c <hal_disalbe_irq+0xd0>
20009ec8:	e350000f 	cmp	r0, #15
20009ecc:	8a00001b 	bhi	20009f40 <hal_disalbe_irq+0xb4>
20009ed0:	e3530007 	cmp	r3, #7
20009ed4:	8a00003f 	bhi	20009fd8 <hal_disalbe_irq+0x14c>
20009ed8:	e3a01c0f 	mov	r1, #3840	; 0xf00
20009edc:	e34e1020 	movt	r1, #57376	; 0xe020
20009ee0:	e5910000 	ldr	r0, [r1]
20009ee4:	e3a02001 	mov	r2, #1
20009ee8:	e1a03312 	lsl	r3, r2, r3
20009eec:	e1802003 	orr	r2, r0, r3
20009ef0:	e5812000 	str	r2, [r1]
20009ef4:	ea000013 	b	20009f48 <hal_disalbe_irq+0xbc>
20009ef8:	e3a00000 	mov	r0, #0
20009efc:	e12fff1e 	bx	lr
20009f00:	e3520001 	cmp	r2, #1
20009f04:	1a000012 	bne	20009f54 <hal_disalbe_irq+0xc8>
20009f08:	e3530007 	cmp	r3, #7
20009f0c:	9a00001c 	bls	20009f84 <hal_disalbe_irq+0xf8>
20009f10:	e3001f0c 	movw	r1, #3852	; 0xf0c
20009f14:	e34e1020 	movt	r1, #57376	; 0xe020
20009f18:	e5910000 	ldr	r0, [r1]
20009f1c:	e2433008 	sub	r3, r3, #8
20009f20:	e1803312 	orr	r3, r0, r2, lsl r3
20009f24:	e5813000 	str	r3, [r1]
20009f28:	e3a03014 	mov	r3, #20
20009f2c:	e3a02801 	mov	r2, #65536	; 0x10000
20009f30:	e34f3200 	movt	r3, #61952	; 0xf200
20009f34:	e5832000 	str	r2, [r3]
20009f38:	e3a00001 	mov	r0, #1
20009f3c:	e12fff1e 	bx	lr
20009f40:	e3a02001 	mov	r2, #1
20009f44:	e1a03312 	lsl	r3, r2, r3
20009f48:	e3a02014 	mov	r2, #20
20009f4c:	e34f2200 	movt	r2, #61952	; 0xf200
20009f50:	e5823000 	str	r3, [r2]
20009f54:	e3a00001 	mov	r0, #1
20009f58:	e12fff1e 	bx	lr
20009f5c:	e350003f 	cmp	r0, #63	; 0x3f
20009f60:	9a00000d 	bls	20009f9c <hal_disalbe_irq+0x110>
20009f64:	e350005f 	cmp	r0, #95	; 0x5f
20009f68:	8a000012 	bhi	20009fb8 <hal_disalbe_irq+0x12c>
20009f6c:	e3a02001 	mov	r2, #1
20009f70:	e3a01014 	mov	r1, #20
20009f74:	e34f1220 	movt	r1, #61984	; 0xf220
20009f78:	e1a03312 	lsl	r3, r2, r3
20009f7c:	e5813000 	str	r3, [r1]
20009f80:	eafffff3 	b	20009f54 <hal_disalbe_irq+0xc8>
20009f84:	e3001f08 	movw	r1, #3848	; 0xf08
20009f88:	e34e1020 	movt	r1, #57376	; 0xe020
20009f8c:	e5910000 	ldr	r0, [r1]
20009f90:	e1802312 	orr	r2, r0, r2, lsl r3
20009f94:	e5812000 	str	r2, [r1]
20009f98:	eaffffe2 	b	20009f28 <hal_disalbe_irq+0x9c>
20009f9c:	e3a02001 	mov	r2, #1
20009fa0:	e3a01014 	mov	r1, #20
20009fa4:	e34f1210 	movt	r1, #61968	; 0xf210
20009fa8:	e1a03312 	lsl	r3, r2, r3
20009fac:	e5813000 	str	r3, [r1]
20009fb0:	e3a00001 	mov	r0, #1
20009fb4:	e12fff1e 	bx	lr
20009fb8:	e350007f 	cmp	r0, #127	; 0x7f
20009fbc:	8affffe4 	bhi	20009f54 <hal_disalbe_irq+0xc8>
20009fc0:	e3a02001 	mov	r2, #1
20009fc4:	e3a01014 	mov	r1, #20
20009fc8:	e34f1230 	movt	r1, #62000	; 0xf230
20009fcc:	e1a03312 	lsl	r3, r2, r3
20009fd0:	e5813000 	str	r3, [r1]
20009fd4:	eaffffde 	b	20009f54 <hal_disalbe_irq+0xc8>
20009fd8:	e3001f04 	movw	r1, #3844	; 0xf04
20009fdc:	e34e1020 	movt	r1, #57376	; 0xe020
20009fe0:	e5910000 	ldr	r0, [r1]
20009fe4:	e3a02001 	mov	r2, #1
20009fe8:	e243c008 	sub	ip, r3, #8
20009fec:	e1800c12 	orr	r0, r0, r2, lsl ip
20009ff0:	e5810000 	str	r0, [r1]
20009ff4:	e1a03312 	lsl	r3, r2, r3
20009ff8:	eaffffd2 	b	20009f48 <hal_disalbe_irq+0xbc>

20009ffc <hal_getvicirqstatus>:
20009ffc:	e3500000 	cmp	r0, #0
2000a000:	0a000007 	beq	2000a024 <hal_getvicirqstatus+0x28>
2000a004:	e3500001 	cmp	r0, #1
2000a008:	0a000008 	beq	2000a030 <hal_getvicirqstatus+0x34>
2000a00c:	e3500002 	cmp	r0, #2
2000a010:	0a00000e 	beq	2000a050 <hal_getvicirqstatus+0x54>
2000a014:	e3500003 	cmp	r0, #3
2000a018:	0a000008 	beq	2000a040 <hal_getvicirqstatus+0x44>
2000a01c:	e3a00000 	mov	r0, #0
2000a020:	e12fff1e 	bx	lr
2000a024:	e3a034f2 	mov	r3, #-234881024	; 0xf2000000
2000a028:	e5930000 	ldr	r0, [r3]
2000a02c:	e12fff1e 	bx	lr
2000a030:	e3a03000 	mov	r3, #0
2000a034:	e34f3210 	movt	r3, #61968	; 0xf210
2000a038:	e5930000 	ldr	r0, [r3]
2000a03c:	e12fff1e 	bx	lr
2000a040:	e3a03000 	mov	r3, #0
2000a044:	e34f3230 	movt	r3, #62000	; 0xf230
2000a048:	e5930000 	ldr	r0, [r3]
2000a04c:	e12fff1e 	bx	lr
2000a050:	e3a03000 	mov	r3, #0
2000a054:	e34f3220 	movt	r3, #61984	; 0xf220
2000a058:	e5930000 	ldr	r0, [r3]
2000a05c:	e12fff1e 	bx	lr

2000a060 <hal_undefine_handle>:
2000a060:	e30d012c 	movw	r0, #53548	; 0xd12c
2000a064:	e92d4008 	push	{r3, lr}
2000a068:	e3420000 	movt	r0, #8192	; 0x2000
2000a06c:	ebfffa7e 	bl	20008a6c <printk>
2000a070:	eafffffe 	b	2000a070 <hal_undefine_handle+0x10>

2000a074 <hal_prefeabort_handle>:
2000a074:	e30d0150 	movw	r0, #53584	; 0xd150
2000a078:	e92d4008 	push	{r3, lr}
2000a07c:	e3420000 	movt	r0, #8192	; 0x2000
2000a080:	ebfffa79 	bl	20008a6c <printk>
2000a084:	eafffffe 	b	2000a084 <hal_prefeabort_handle+0x10>

2000a088 <hal_dataabort_handle>:
2000a088:	e30d0174 	movw	r0, #53620	; 0xd174
2000a08c:	e92d4008 	push	{r3, lr}
2000a090:	e3420000 	movt	r0, #8192	; 0x2000
2000a094:	ebfffa74 	bl	20008a6c <printk>
2000a098:	eafffffe 	b	2000a098 <hal_dataabort_handle+0x10>

2000a09c <hal_swi_handle>:
2000a09c:	e12fff1e 	bx	lr

2000a0a0 <hal_irq_handle>:
2000a0a0:	e92d4070 	push	{r4, r5, r6, lr}
2000a0a4:	e3a00000 	mov	r0, #0
2000a0a8:	ebffffd3 	bl	20009ffc <hal_getvicirqstatus>
2000a0ac:	e3500000 	cmp	r0, #0
2000a0b0:	0a000036 	beq	2000a190 <hal_irq_handle+0xf0>
2000a0b4:	e3500801 	cmp	r0, #65536	; 0x10000
2000a0b8:	13a04000 	movne	r4, #0
2000a0bc:	1a000003 	bne	2000a0d0 <hal_irq_handle+0x30>
2000a0c0:	ea000022 	b	2000a150 <hal_irq_handle+0xb0>
2000a0c4:	e2844001 	add	r4, r4, #1
2000a0c8:	e3540020 	cmp	r4, #32
2000a0cc:	0a00002f 	beq	2000a190 <hal_irq_handle+0xf0>
2000a0d0:	e1a03430 	lsr	r3, r0, r4
2000a0d4:	e3130001 	tst	r3, #1
2000a0d8:	0afffff9 	beq	2000a0c4 <hal_irq_handle+0x24>
2000a0dc:	e1a00004 	mov	r0, r4
2000a0e0:	ebfffe7b 	bl	20009ad4 <hal_rtn_intdscp>
2000a0e4:	e3500000 	cmp	r0, #0
2000a0e8:	0a00005b 	beq	2000a25c <hal_irq_handle+0x1bc>
2000a0ec:	e590300c 	ldr	r3, [r0, #12]
2000a0f0:	e3530000 	cmp	r3, #0
2000a0f4:	0a000011 	beq	2000a140 <hal_irq_handle+0xa0>
2000a0f8:	e1c022d0 	ldrd	r2, [r0, #32]
2000a0fc:	e1a06000 	mov	r6, r0
2000a100:	e5b65004 	ldr	r5, [r6, #4]!
2000a104:	e2922001 	adds	r2, r2, #1
2000a108:	e2a33000 	adc	r3, r3, #0
2000a10c:	e1560005 	cmp	r6, r5
2000a110:	e1c022f0 	strd	r2, [r0, #32]
2000a114:	0a000009 	beq	2000a140 <hal_irq_handle+0xa0>
2000a118:	e5953020 	ldr	r3, [r5, #32]
2000a11c:	e1a00004 	mov	r0, r4
2000a120:	e5951014 	ldr	r1, [r5, #20]
2000a124:	e12fff33 	blx	r3
2000a128:	e595301c 	ldr	r3, [r5, #28]
2000a12c:	e2833001 	add	r3, r3, #1
2000a130:	e585301c 	str	r3, [r5, #28]
2000a134:	e5955000 	ldr	r5, [r5]
2000a138:	e1560005 	cmp	r6, r5
2000a13c:	1afffff5 	bne	2000a118 <hal_irq_handle+0x78>
2000a140:	e1a00004 	mov	r0, r4
2000a144:	ebfffeb5 	bl	20009c20 <hal_clear_irqpnd>
2000a148:	e8bd4070 	pop	{r4, r5, r6, lr}
2000a14c:	ea00068b 	b	2000bb80 <krnl_try_sched>
2000a150:	e3003f4c 	movw	r3, #3916	; 0xf4c
2000a154:	e34e3020 	movt	r3, #57376	; 0xe020
2000a158:	e5d32000 	ldrb	r2, [r3]
2000a15c:	e3001f48 	movw	r1, #3912	; 0xf48
2000a160:	e6ef2072 	uxtb	r2, r2
2000a164:	e34e1020 	movt	r1, #57376	; 0xe020
2000a168:	e5d13000 	ldrb	r3, [r1]
2000a16c:	e6ef3073 	uxtb	r3, r3
2000a170:	e3a04000 	mov	r4, #0
2000a174:	e1832402 	orr	r2, r3, r2, lsl #8
2000a178:	e1a03452 	asr	r3, r2, r4
2000a17c:	e3130001 	tst	r3, #1
2000a180:	1a000033 	bne	2000a254 <hal_irq_handle+0x1b4>
2000a184:	e2844001 	add	r4, r4, #1
2000a188:	e3540010 	cmp	r4, #16
2000a18c:	1afffff9 	bne	2000a178 <hal_irq_handle+0xd8>
2000a190:	e3a00001 	mov	r0, #1
2000a194:	ebffff98 	bl	20009ffc <hal_getvicirqstatus>
2000a198:	e3500000 	cmp	r0, #0
2000a19c:	13a04000 	movne	r4, #0
2000a1a0:	1a000010 	bne	2000a1e8 <hal_irq_handle+0x148>
2000a1a4:	e3a00002 	mov	r0, #2
2000a1a8:	ebffff93 	bl	20009ffc <hal_getvicirqstatus>
2000a1ac:	e3500000 	cmp	r0, #0
2000a1b0:	0a000011 	beq	2000a1fc <hal_irq_handle+0x15c>
2000a1b4:	e3a04000 	mov	r4, #0
2000a1b8:	ea000002 	b	2000a1c8 <hal_irq_handle+0x128>
2000a1bc:	e2844001 	add	r4, r4, #1
2000a1c0:	e3540020 	cmp	r4, #32
2000a1c4:	0a00000c 	beq	2000a1fc <hal_irq_handle+0x15c>
2000a1c8:	e1a03430 	lsr	r3, r0, r4
2000a1cc:	e3130001 	tst	r3, #1
2000a1d0:	0afffff9 	beq	2000a1bc <hal_irq_handle+0x11c>
2000a1d4:	e2844040 	add	r4, r4, #64	; 0x40
2000a1d8:	eaffffbf 	b	2000a0dc <hal_irq_handle+0x3c>
2000a1dc:	e2844001 	add	r4, r4, #1
2000a1e0:	e3540020 	cmp	r4, #32
2000a1e4:	0affffee 	beq	2000a1a4 <hal_irq_handle+0x104>
2000a1e8:	e1a03430 	lsr	r3, r0, r4
2000a1ec:	e3130001 	tst	r3, #1
2000a1f0:	0afffff9 	beq	2000a1dc <hal_irq_handle+0x13c>
2000a1f4:	e2844020 	add	r4, r4, #32
2000a1f8:	eaffffb7 	b	2000a0dc <hal_irq_handle+0x3c>
2000a1fc:	e3a00003 	mov	r0, #3
2000a200:	ebffff7d 	bl	20009ffc <hal_getvicirqstatus>
2000a204:	e3500000 	cmp	r0, #0
2000a208:	0a000009 	beq	2000a234 <hal_irq_handle+0x194>
2000a20c:	e3a04000 	mov	r4, #0
2000a210:	ea000002 	b	2000a220 <hal_irq_handle+0x180>
2000a214:	e2844001 	add	r4, r4, #1
2000a218:	e3540020 	cmp	r4, #32
2000a21c:	0a000004 	beq	2000a234 <hal_irq_handle+0x194>
2000a220:	e1a03430 	lsr	r3, r0, r4
2000a224:	e3130001 	tst	r3, #1
2000a228:	0afffff9 	beq	2000a214 <hal_irq_handle+0x174>
2000a22c:	e2844060 	add	r4, r4, #96	; 0x60
2000a230:	eaffffa9 	b	2000a0dc <hal_irq_handle+0x3c>
2000a234:	e30d0190 	movw	r0, #53648	; 0xd190
2000a238:	e3a04090 	mov	r4, #144	; 0x90
2000a23c:	e3420000 	movt	r0, #8192	; 0x2000
2000a240:	ebfffa09 	bl	20008a6c <printk>
2000a244:	e1a00004 	mov	r0, r4
2000a248:	ebfffe74 	bl	20009c20 <hal_clear_irqpnd>
2000a24c:	e8bd4070 	pop	{r4, r5, r6, lr}
2000a250:	ea00064a 	b	2000bb80 <krnl_try_sched>
2000a254:	e2844080 	add	r4, r4, #128	; 0x80
2000a258:	eaffff9f 	b	2000a0dc <hal_irq_handle+0x3c>
2000a25c:	e30d0190 	movw	r0, #53648	; 0xd190
2000a260:	e3420000 	movt	r0, #8192	; 0x2000
2000a264:	ebfffa00 	bl	20008a6c <printk>
2000a268:	eaffffb4 	b	2000a140 <hal_irq_handle+0xa0>

2000a26c <hal_fiq_handle>:
2000a26c:	e30d01ac 	movw	r0, #53676	; 0xd1ac
2000a270:	e92d4008 	push	{r3, lr}
2000a274:	e3420000 	movt	r0, #8192	; 0x2000
2000a278:	ebfff9fb 	bl	20008a6c <printk>
2000a27c:	eafffffe 	b	2000a27c <hal_fiq_handle+0x10>

2000a280 <krnl_init>:
2000a280:	e30d01c4 	movw	r0, #53700	; 0xd1c4
2000a284:	e92d4008 	push	{r3, lr}
2000a288:	e3420000 	movt	r0, #8192	; 0x2000
2000a28c:	ebfff9f6 	bl	20008a6c <printk>
2000a290:	eb000019 	bl	2000a2fc <krnl_mm_init>
2000a294:	eb0003ad 	bl	2000b150 <interrupt_test>
2000a298:	e30d01dc 	movw	r0, #53724	; 0xd1dc
2000a29c:	e3420000 	movt	r0, #8192	; 0x2000
2000a2a0:	ebfff9f1 	bl	20008a6c <printk>
2000a2a4:	eb0004d6 	bl	2000b604 <driver_system_init>
2000a2a8:	e30d0200 	movw	r0, #53760	; 0xd200
2000a2ac:	e3420000 	movt	r0, #8192	; 0x2000
2000a2b0:	ebfff9ed 	bl	20008a6c <printk>
2000a2b4:	eb0004de 	bl	2000b634 <driver_load>
2000a2b8:	e30d0228 	movw	r0, #53800	; 0xd228
2000a2bc:	e3420000 	movt	r0, #8192	; 0x2000
2000a2c0:	ebfff9e9 	bl	20008a6c <printk>
2000a2c4:	eb0004ec 	bl	2000b67c <driver_list_all>
2000a2c8:	e30d0238 	movw	r0, #53816	; 0xd238
2000a2cc:	e3420000 	movt	r0, #8192	; 0x2000
2000a2d0:	ebfff9e5 	bl	20008a6c <printk>
2000a2d4:	eb00063c 	bl	2000bbcc <krnl_sched_init>
2000a2d8:	e30f0318 	movw	r0, #62232	; 0xf318
2000a2dc:	e3420000 	movt	r0, #8192	; 0x2000
2000a2e0:	eb000030 	bl	2000a3a8 <krnl_waitlist_init>
2000a2e4:	eb000902 	bl	2000c6f4 <krnl_task_init>
2000a2e8:	eb0006f3 	bl	2000bebc <krnl_cpuidle_init>
2000a2ec:	e30d025c 	movw	r0, #53852	; 0xd25c
2000a2f0:	e3420000 	movt	r0, #8192	; 0x2000
2000a2f4:	ebfff9dc 	bl	20008a6c <printk>
2000a2f8:	eafffffe 	b	2000a2f8 <krnl_init+0x78>

2000a2fc <krnl_mm_init>:
2000a2fc:	e30f3a6c 	movw	r3, #64108	; 0xfa6c
2000a300:	e3a02000 	mov	r2, #0
2000a304:	e3423000 	movt	r3, #8192	; 0x2000
2000a308:	e5832000 	str	r2, [r3]
2000a30c:	e2831004 	add	r1, r3, #4
2000a310:	e583200c 	str	r2, [r3, #12]
2000a314:	e5832010 	str	r2, [r3, #16]
2000a318:	e2830014 	add	r0, r3, #20
2000a31c:	e5831004 	str	r1, [r3, #4]
2000a320:	e5831008 	str	r1, [r3, #8]
2000a324:	e5802000 	str	r2, [r0]
2000a328:	e2831018 	add	r1, r3, #24
2000a32c:	e5812000 	str	r2, [r1]
2000a330:	e2830024 	add	r0, r3, #36	; 0x24
2000a334:	e283102c 	add	r1, r3, #44	; 0x2c
2000a338:	e583201c 	str	r2, [r3, #28]
2000a33c:	e5832020 	str	r2, [r3, #32]
2000a340:	e583203c 	str	r2, [r3, #60]	; 0x3c
2000a344:	e5832040 	str	r2, [r3, #64]	; 0x40
2000a348:	e5830024 	str	r0, [r3, #36]	; 0x24
2000a34c:	e5830028 	str	r0, [r3, #40]	; 0x28
2000a350:	e583102c 	str	r1, [r3, #44]	; 0x2c
2000a354:	e5831030 	str	r1, [r3, #48]	; 0x30
2000a358:	e12fff1e 	bx	lr

2000a35c <krnl_alloc>:
2000a35c:	e2402001 	sub	r2, r0, #1
2000a360:	e3520501 	cmp	r2, #4194304	; 0x400000
2000a364:	2a000003 	bcs	2000a378 <krnl_alloc+0x1c>
2000a368:	e3500b02 	cmp	r0, #2048	; 0x800
2000a36c:	9a000000 	bls	2000a374 <krnl_alloc+0x18>
2000a370:	ea00007e 	b	2000a570 <krnl_page_alloc>
2000a374:	ea0001d9 	b	2000aae0 <krnl_bytes_alloc>
2000a378:	e3a00000 	mov	r0, #0
2000a37c:	e12fff1e 	bx	lr

2000a380 <krnl_free>:
2000a380:	e2412001 	sub	r2, r1, #1
2000a384:	e3500000 	cmp	r0, #0
2000a388:	13520501 	cmpne	r2, #4194304	; 0x400000
2000a38c:	2a000002 	bcs	2000a39c <krnl_free+0x1c>
2000a390:	e3510b02 	cmp	r1, #2048	; 0x800
2000a394:	9a000002 	bls	2000a3a4 <krnl_free+0x24>
2000a398:	ea00011f 	b	2000a81c <krnl_page_free>
2000a39c:	e3a00000 	mov	r0, #0
2000a3a0:	e12fff1e 	bx	lr
2000a3a4:	ea000242 	b	2000acb4 <krnl_bytes_free>

2000a3a8 <krnl_waitlist_init>:
2000a3a8:	e3a03000 	mov	r3, #0
2000a3ac:	e5803000 	str	r3, [r0]
2000a3b0:	e5803004 	str	r3, [r0, #4]
2000a3b4:	e2803008 	add	r3, r0, #8
2000a3b8:	e5803008 	str	r3, [r0, #8]
2000a3bc:	e580300c 	str	r3, [r0, #12]
2000a3c0:	e12fff1e 	bx	lr

2000a3c4 <krnl_waitlist_wait>:
2000a3c4:	ea000649 	b	2000bcf0 <krnl_sched_wait>

2000a3c8 <krnl_waitlist_up>:
2000a3c8:	e5902008 	ldr	r2, [r0, #8]
2000a3cc:	e2803008 	add	r3, r0, #8
2000a3d0:	e1530002 	cmp	r3, r2
2000a3d4:	0a000000 	beq	2000a3dc <krnl_waitlist_up+0x14>
2000a3d8:	ea000679 	b	2000bdc4 <krnl_sched_up>
2000a3dc:	e590200c 	ldr	r2, [r0, #12]
2000a3e0:	e1530002 	cmp	r3, r2
2000a3e4:	012fff1e 	bxeq	lr
2000a3e8:	ea000675 	b	2000bdc4 <krnl_sched_up>

2000a3ec <krnl_waitlist_upall>:
2000a3ec:	e92d4038 	push	{r3, r4, r5, lr}
2000a3f0:	e1a04000 	mov	r4, r0
2000a3f4:	e2805008 	add	r5, r0, #8
2000a3f8:	ea000000 	b	2000a400 <krnl_waitlist_upall+0x14>
2000a3fc:	eb000670 	bl	2000bdc4 <krnl_sched_up>
2000a400:	e5943008 	ldr	r3, [r4, #8]
2000a404:	e1a00004 	mov	r0, r4
2000a408:	e1530005 	cmp	r3, r5
2000a40c:	1afffffa 	bne	2000a3fc <krnl_waitlist_upall+0x10>
2000a410:	e594300c 	ldr	r3, [r4, #12]
2000a414:	e1530005 	cmp	r3, r5
2000a418:	1afffff7 	bne	2000a3fc <krnl_waitlist_upall+0x10>
2000a41c:	e8bd8038 	pop	{r3, r4, r5, pc}

2000a420 <krnl_sem_init>:
2000a420:	e3a03000 	mov	r3, #0
2000a424:	e5803000 	str	r3, [r0]
2000a428:	e5801004 	str	r1, [r0, #4]
2000a42c:	e2800008 	add	r0, r0, #8
2000a430:	eaffffdc 	b	2000a3a8 <krnl_waitlist_init>

2000a434 <krnl_print_sem>:
2000a434:	e92d4010 	push	{r4, lr}
2000a438:	e1a04000 	mov	r4, r0
2000a43c:	e30d0270 	movw	r0, #53872	; 0xd270
2000a440:	e24dd008 	sub	sp, sp, #8
2000a444:	e5941000 	ldr	r1, [r4]
2000a448:	e3420000 	movt	r0, #8192	; 0x2000
2000a44c:	e5942004 	ldr	r2, [r4, #4]
2000a450:	ebfff985 	bl	20008a6c <printk>
2000a454:	e1a0c004 	mov	ip, r4
2000a458:	e5bce010 	ldr	lr, [ip, #16]!
2000a45c:	e30d0288 	movw	r0, #53896	; 0xd288
2000a460:	e5941008 	ldr	r1, [r4, #8]
2000a464:	e3420000 	movt	r0, #8192	; 0x2000
2000a468:	e594200c 	ldr	r2, [r4, #12]
2000a46c:	e5943014 	ldr	r3, [r4, #20]
2000a470:	e58de000 	str	lr, [sp]
2000a474:	e58dc004 	str	ip, [sp, #4]
2000a478:	ebfff97b 	bl	20008a6c <printk>
2000a47c:	e28dd008 	add	sp, sp, #8
2000a480:	e8bd8010 	pop	{r4, pc}

2000a484 <krnl_sem_down>:
2000a484:	e92d4070 	push	{r4, r5, r6, lr}
2000a488:	e1a05000 	mov	r5, r0
2000a48c:	e2806008 	add	r6, r0, #8
2000a490:	ea000002 	b	2000a4a0 <krnl_sem_down+0x1c>
2000a494:	ebffffca 	bl	2000a3c4 <krnl_waitlist_wait>
2000a498:	e129f004 	msr	CPSR_fc, r4
2000a49c:	eb000569 	bl	2000ba48 <krnl_thread_sched>
2000a4a0:	ebfffa0c 	bl	20008cd8 <raw_local_fiqirq_disable>
2000a4a4:	e5953004 	ldr	r3, [r5, #4]
2000a4a8:	e3a01000 	mov	r1, #0
2000a4ac:	e1530001 	cmp	r3, r1
2000a4b0:	e1a04000 	mov	r4, r0
2000a4b4:	e1a00006 	mov	r0, r6
2000a4b8:	dafffff5 	ble	2000a494 <krnl_sem_down+0x10>
2000a4bc:	e2433001 	sub	r3, r3, #1
2000a4c0:	e5853004 	str	r3, [r5, #4]
2000a4c4:	e129f004 	msr	CPSR_fc, r4
2000a4c8:	e8bd8070 	pop	{r4, r5, r6, pc}

2000a4cc <krnl_sem_up>:
2000a4cc:	e92d4038 	push	{r3, r4, r5, lr}
2000a4d0:	e1a04000 	mov	r4, r0
2000a4d4:	ebfff9ff 	bl	20008cd8 <raw_local_fiqirq_disable>
2000a4d8:	e5943004 	ldr	r3, [r4, #4]
2000a4dc:	e2833001 	add	r3, r3, #1
2000a4e0:	e5843004 	str	r3, [r4, #4]
2000a4e4:	e1a05000 	mov	r5, r0
2000a4e8:	e2840008 	add	r0, r4, #8
2000a4ec:	ebffffb5 	bl	2000a3c8 <krnl_waitlist_up>
2000a4f0:	eb0005f6 	bl	2000bcd0 <krnl_set_schedflag>
2000a4f4:	e129f005 	msr	CPSR_fc, r5
2000a4f8:	e8bd8038 	pop	{r3, r4, r5, pc}

2000a4fc <mplhead_isok_freepagempl>:
2000a4fc:	e3500000 	cmp	r0, #0
2000a500:	012fff1e 	bxeq	lr
2000a504:	e590300c 	ldr	r3, [r0, #12]
2000a508:	e3530001 	cmp	r3, #1
2000a50c:	0a000001 	beq	2000a518 <mplhead_isok_freepagempl+0x1c>
2000a510:	e3a00000 	mov	r0, #0
2000a514:	e12fff1e 	bx	lr
2000a518:	e5903028 	ldr	r3, [r0, #40]	; 0x28
2000a51c:	e1530002 	cmp	r3, r2
2000a520:	1afffffa 	bne	2000a510 <mplhead_isok_freepagempl+0x14>
2000a524:	e5902030 	ldr	r2, [r0, #48]	; 0x30
2000a528:	e3520000 	cmp	r2, #0
2000a52c:	0a00000d 	beq	2000a568 <mplhead_isok_freepagempl+0x6c>
2000a530:	e5902020 	ldr	r2, [r0, #32]
2000a534:	e3520000 	cmp	r2, #0
2000a538:	0a00000a 	beq	2000a568 <mplhead_isok_freepagempl+0x6c>
2000a53c:	e5902010 	ldr	r2, [r0, #16]
2000a540:	e2822a01 	add	r2, r2, #4096	; 0x1000
2000a544:	e1510002 	cmp	r1, r2
2000a548:	3afffff0 	bcc	2000a510 <mplhead_isok_freepagempl+0x14>
2000a54c:	e2432001 	sub	r2, r3, #1
2000a550:	e5903014 	ldr	r3, [r0, #20]
2000a554:	e0820001 	add	r0, r2, r1
2000a558:	e1500003 	cmp	r0, r3
2000a55c:	83a00000 	movhi	r0, #0
2000a560:	93a00001 	movls	r0, #1
2000a564:	e12fff1e 	bx	lr
2000a568:	e1a00002 	mov	r0, r2
2000a56c:	e12fff1e 	bx	lr

2000a570 <krnl_page_alloc>:
2000a570:	e2800eff 	add	r0, r0, #4080	; 0xff0
2000a574:	e280000f 	add	r0, r0, #15
2000a578:	e92d4ff0 	push	{r4, r5, r6, r7, r8, r9, sl, fp, lr}
2000a57c:	e3c04eff 	bic	r4, r0, #4080	; 0xff0
2000a580:	e3c4400f 	bic	r4, r4, #15
2000a584:	e24dd00c 	sub	sp, sp, #12
2000a588:	e3540a1f 	cmp	r4, #126976	; 0x1f000
2000a58c:	8a000079 	bhi	2000a778 <krnl_page_alloc+0x208>
2000a590:	ebfff9d0 	bl	20008cd8 <raw_local_fiqirq_disable>
2000a594:	e30f6a6c 	movw	r6, #64108	; 0xfa6c
2000a598:	e3426000 	movt	r6, #8192	; 0x2000
2000a59c:	e1a07000 	mov	r7, r0
2000a5a0:	ebfff9cc 	bl	20008cd8 <raw_local_fiqirq_disable>
2000a5a4:	e596303c 	ldr	r3, [r6, #60]	; 0x3c
2000a5a8:	e3530000 	cmp	r3, #0
2000a5ac:	e1a08000 	mov	r8, r0
2000a5b0:	0a000002 	beq	2000a5c0 <krnl_page_alloc+0x50>
2000a5b4:	e593200c 	ldr	r2, [r3, #12]
2000a5b8:	e3520001 	cmp	r2, #1
2000a5bc:	0a000084 	beq	2000a7d4 <krnl_page_alloc+0x264>
2000a5c0:	e5961024 	ldr	r1, [r6, #36]	; 0x24
2000a5c4:	e59f524c 	ldr	r5, [pc, #588]	; 2000a818 <krnl_page_alloc+0x2a8>
2000a5c8:	e1510005 	cmp	r1, r5
2000a5cc:	1a00004e 	bne	2000a70c <krnl_page_alloc+0x19c>
2000a5d0:	e3540a01 	cmp	r4, #4096	; 0x1000
2000a5d4:	3a00007c 	bcc	2000a7cc <krnl_page_alloc+0x25c>
2000a5d8:	e3a00802 	mov	r0, #131072	; 0x20000
2000a5dc:	ebfffb99 	bl	20009448 <hal_memallocblks>
2000a5e0:	e3500000 	cmp	r0, #0
2000a5e4:	0a000078 	beq	2000a7cc <krnl_page_alloc+0x25c>
2000a5e8:	e7eb2050 	ubfx	r2, r0, #0, #12
2000a5ec:	e30fafff 	movw	sl, #65535	; 0xffff
2000a5f0:	e3520000 	cmp	r2, #0
2000a5f4:	e340a001 	movt	sl, #1
2000a5f8:	e1a03000 	mov	r3, r0
2000a5fc:	e080a00a 	add	sl, r0, sl
2000a600:	1a000071 	bne	2000a7cc <krnl_page_alloc+0x25c>
2000a604:	e5802000 	str	r2, [r0]
2000a608:	e2841a01 	add	r1, r4, #4096	; 0x1000
2000a60c:	e280e004 	add	lr, r0, #4
2000a610:	e0811000 	add	r1, r1, r0
2000a614:	e280903c 	add	r9, r0, #60	; 0x3c
2000a618:	e241c001 	sub	ip, r1, #1
2000a61c:	e5800010 	str	r0, [r0, #16]
2000a620:	e15a000c 	cmp	sl, ip
2000a624:	e580a014 	str	sl, [r0, #20]
2000a628:	e3a0c001 	mov	ip, #1
2000a62c:	e580201c 	str	r2, [r0, #28]
2000a630:	e5802020 	str	r2, [r0, #32]
2000a634:	e5804024 	str	r4, [r0, #36]	; 0x24
2000a638:	e5804028 	str	r4, [r0, #40]	; 0x28
2000a63c:	e58de000 	str	lr, [sp]
2000a640:	e5802030 	str	r2, [r0, #48]	; 0x30
2000a644:	e58d9004 	str	r9, [sp, #4]
2000a648:	e5802034 	str	r2, [r0, #52]	; 0x34
2000a64c:	e580c00c 	str	ip, [r0, #12]
2000a650:	e580e004 	str	lr, [r0, #4]
2000a654:	e580e008 	str	lr, [r0, #8]
2000a658:	e5809038 	str	r9, [r0, #56]	; 0x38
2000a65c:	3a000068 	bcc	2000a804 <krnl_page_alloc+0x294>
2000a660:	e30ebfff 	movw	fp, #61439	; 0xefff
2000a664:	e280ca01 	add	ip, r0, #4096	; 0x1000
2000a668:	e34fbfff 	movt	fp, #65535	; 0xffff
2000a66c:	e060b00b 	rsb	fp, r0, fp
2000a670:	e08bb001 	add	fp, fp, r1
2000a674:	e2801044 	add	r1, r0, #68	; 0x44
2000a678:	e1a0e002 	mov	lr, r2
2000a67c:	e501c008 	str	ip, [r1, #-8]
2000a680:	e08cc004 	add	ip, ip, r4
2000a684:	e08b900c 	add	r9, fp, ip
2000a688:	e5011004 	str	r1, [r1, #-4]
2000a68c:	e159000a 	cmp	r9, sl
2000a690:	e28ee001 	add	lr, lr, #1
2000a694:	e2811008 	add	r1, r1, #8
2000a698:	9afffff7 	bls	2000a67c <krnl_page_alloc+0x10c>
2000a69c:	e59d4004 	ldr	r4, [sp, #4]
2000a6a0:	e24e121e 	sub	r1, lr, #-536870911	; 0xe0000001
2000a6a4:	e3a0c000 	mov	ip, #0
2000a6a8:	e0841181 	add	r1, r4, r1, lsl #3
2000a6ac:	e581c004 	str	ip, [r1, #4]
2000a6b0:	e580401c 	str	r4, [r0, #28]
2000a6b4:	e5964024 	ldr	r4, [r6, #36]	; 0x24
2000a6b8:	e1a0c00e 	mov	ip, lr
2000a6bc:	e580e020 	str	lr, [r0, #32]
2000a6c0:	e580e034 	str	lr, [r0, #52]	; 0x34
2000a6c4:	e59de000 	ldr	lr, [sp]
2000a6c8:	e596101c 	ldr	r1, [r6, #28]
2000a6cc:	e584e004 	str	lr, [r4, #4]
2000a6d0:	e2811001 	add	r1, r1, #1
2000a6d4:	e9800030 	stmib	r0, {r4, r5}
2000a6d8:	e586e024 	str	lr, [r6, #36]	; 0x24
2000a6dc:	e586101c 	str	r1, [r6, #28]
2000a6e0:	ea000013 	b	2000a734 <krnl_page_alloc+0x1c4>
2000a6e4:	e591000c 	ldr	r0, [r1, #12]
2000a6e8:	e5912010 	ldr	r2, [r1, #16]
2000a6ec:	e1500002 	cmp	r0, r2
2000a6f0:	2a000002 	bcs	2000a700 <krnl_page_alloc+0x190>
2000a6f4:	e5912024 	ldr	r2, [r1, #36]	; 0x24
2000a6f8:	e1540002 	cmp	r4, r2
2000a6fc:	0a000008 	beq	2000a724 <krnl_page_alloc+0x1b4>
2000a700:	e5911000 	ldr	r1, [r1]
2000a704:	e1510005 	cmp	r1, r5
2000a708:	0affffb0 	beq	2000a5d0 <krnl_page_alloc+0x60>
2000a70c:	e2513004 	subs	r3, r1, #4
2000a710:	0afffffa 	beq	2000a700 <krnl_page_alloc+0x190>
2000a714:	e5912008 	ldr	r2, [r1, #8]
2000a718:	e3520001 	cmp	r2, #1
2000a71c:	1afffff7 	bne	2000a700 <krnl_page_alloc+0x190>
2000a720:	eaffffef 	b	2000a6e4 <krnl_page_alloc+0x174>
2000a724:	e591202c 	ldr	r2, [r1, #44]	; 0x2c
2000a728:	e591c01c 	ldr	ip, [r1, #28]
2000a72c:	e152000c 	cmp	r2, ip
2000a730:	2afffff2 	bcs	2000a700 <krnl_page_alloc+0x190>
2000a734:	e152000c 	cmp	r2, ip
2000a738:	e586303c 	str	r3, [r6, #60]	; 0x3c
2000a73c:	2a000022 	bcs	2000a7cc <krnl_page_alloc+0x25c>
2000a740:	e593101c 	ldr	r1, [r3, #28]
2000a744:	e3510000 	cmp	r1, #0
2000a748:	12822001 	addne	r2, r2, #1
2000a74c:	1591e004 	ldrne	lr, [r1, #4]
2000a750:	01a00001 	moveq	r0, r1
2000a754:	15910000 	ldrne	r0, [r1]
2000a758:	13a0c000 	movne	ip, #0
2000a75c:	1583e01c 	strne	lr, [r3, #28]
2000a760:	1581c004 	strne	ip, [r1, #4]
2000a764:	15832030 	strne	r2, [r3, #48]	; 0x30
2000a768:	e129f008 	msr	CPSR_fc, r8
2000a76c:	e129f007 	msr	CPSR_fc, r7
2000a770:	e28dd00c 	add	sp, sp, #12
2000a774:	e8bd8ff0 	pop	{r4, r5, r6, r7, r8, r9, sl, fp, pc}
2000a778:	e3540802 	cmp	r4, #131072	; 0x20000
2000a77c:	93a00802 	movls	r0, #131072	; 0x20000
2000a780:	9a00000e 	bls	2000a7c0 <krnl_page_alloc+0x250>
2000a784:	e3540701 	cmp	r4, #262144	; 0x40000
2000a788:	93a00701 	movls	r0, #262144	; 0x40000
2000a78c:	9a00000b 	bls	2000a7c0 <krnl_page_alloc+0x250>
2000a790:	e3540702 	cmp	r4, #524288	; 0x80000
2000a794:	93a00702 	movls	r0, #524288	; 0x80000
2000a798:	9a000008 	bls	2000a7c0 <krnl_page_alloc+0x250>
2000a79c:	e3540601 	cmp	r4, #1048576	; 0x100000
2000a7a0:	93a00601 	movls	r0, #1048576	; 0x100000
2000a7a4:	9a000005 	bls	2000a7c0 <krnl_page_alloc+0x250>
2000a7a8:	e3540602 	cmp	r4, #2097152	; 0x200000
2000a7ac:	93a00602 	movls	r0, #2097152	; 0x200000
2000a7b0:	9a000002 	bls	2000a7c0 <krnl_page_alloc+0x250>
2000a7b4:	e3540501 	cmp	r4, #4194304	; 0x400000
2000a7b8:	83a00000 	movhi	r0, #0
2000a7bc:	93a00501 	movls	r0, #4194304	; 0x400000
2000a7c0:	e28dd00c 	add	sp, sp, #12
2000a7c4:	e8bd4ff0 	pop	{r4, r5, r6, r7, r8, r9, sl, fp, lr}
2000a7c8:	eafffb1e 	b	20009448 <hal_memallocblks>
2000a7cc:	e3a00000 	mov	r0, #0
2000a7d0:	eaffffe4 	b	2000a768 <krnl_page_alloc+0x1f8>
2000a7d4:	e5931010 	ldr	r1, [r3, #16]
2000a7d8:	e5932014 	ldr	r2, [r3, #20]
2000a7dc:	e1510002 	cmp	r1, r2
2000a7e0:	2affff76 	bcs	2000a5c0 <krnl_page_alloc+0x50>
2000a7e4:	e5932028 	ldr	r2, [r3, #40]	; 0x28
2000a7e8:	e1540002 	cmp	r4, r2
2000a7ec:	1affff73 	bne	2000a5c0 <krnl_page_alloc+0x50>
2000a7f0:	e5932030 	ldr	r2, [r3, #48]	; 0x30
2000a7f4:	e593c020 	ldr	ip, [r3, #32]
2000a7f8:	e152000c 	cmp	r2, ip
2000a7fc:	3affffcc 	bcc	2000a734 <krnl_page_alloc+0x1c4>
2000a800:	eaffff6e 	b	2000a5c0 <krnl_page_alloc+0x50>
2000a804:	e59d1004 	ldr	r1, [sp, #4]
2000a808:	e1a0e002 	mov	lr, r2
2000a80c:	e580203c 	str	r2, [r0, #60]	; 0x3c
2000a810:	e5812004 	str	r2, [r1, #4]
2000a814:	eaffffa6 	b	2000a6b4 <krnl_page_alloc+0x144>
2000a818:	2000fa90 	mulcs	r0, r0, sl

2000a81c <krnl_page_free>:
2000a81c:	e2811eff 	add	r1, r1, #4080	; 0xff0
2000a820:	e281100f 	add	r1, r1, #15
2000a824:	e92d4ff8 	push	{r3, r4, r5, r6, r7, r8, r9, sl, fp, lr}
2000a828:	e3c1aeff 	bic	sl, r1, #4080	; 0xff0
2000a82c:	e3caa00f 	bic	sl, sl, #15
2000a830:	e35a0a1f 	cmp	sl, #126976	; 0x1f000
2000a834:	8a000033 	bhi	2000a908 <krnl_page_free+0xec>
2000a838:	e1a06000 	mov	r6, r0
2000a83c:	ebfff925 	bl	20008cd8 <raw_local_fiqirq_disable>
2000a840:	e30f7a6c 	movw	r7, #64108	; 0xfa6c
2000a844:	e3427000 	movt	r7, #8192	; 0x2000
2000a848:	e597903c 	ldr	r9, [r7, #60]	; 0x3c
2000a84c:	e3590000 	cmp	r9, #0
2000a850:	e1a08000 	mov	r8, r0
2000a854:	0a000005 	beq	2000a870 <krnl_page_free+0x54>
2000a858:	e1a00009 	mov	r0, r9
2000a85c:	e1a01006 	mov	r1, r6
2000a860:	e1a0200a 	mov	r2, sl
2000a864:	ebffff24 	bl	2000a4fc <mplhead_isok_freepagempl>
2000a868:	e3500001 	cmp	r0, #1
2000a86c:	0a00005e 	beq	2000a9ec <krnl_page_free+0x1d0>
2000a870:	e5974024 	ldr	r4, [r7, #36]	; 0x24
2000a874:	e59fb188 	ldr	fp, [pc, #392]	; 2000aa04 <krnl_page_free+0x1e8>
2000a878:	e154000b 	cmp	r4, fp
2000a87c:	1a000003 	bne	2000a890 <krnl_page_free+0x74>
2000a880:	ea00001d 	b	2000a8fc <krnl_page_free+0xe0>
2000a884:	e5944000 	ldr	r4, [r4]
2000a888:	e154000b 	cmp	r4, fp
2000a88c:	0a00001a 	beq	2000a8fc <krnl_page_free+0xe0>
2000a890:	e2445004 	sub	r5, r4, #4
2000a894:	e1a01006 	mov	r1, r6
2000a898:	e1a0200a 	mov	r2, sl
2000a89c:	e1a00005 	mov	r0, r5
2000a8a0:	ebffff15 	bl	2000a4fc <mplhead_isok_freepagempl>
2000a8a4:	e3500001 	cmp	r0, #1
2000a8a8:	1afffff5 	bne	2000a884 <krnl_page_free+0x68>
2000a8ac:	e3550000 	cmp	r5, #0
2000a8b0:	0a000011 	beq	2000a8fc <krnl_page_free+0xe0>
2000a8b4:	e5953020 	ldr	r3, [r5, #32]
2000a8b8:	e3530000 	cmp	r3, #0
2000a8bc:	0a00000e 	beq	2000a8fc <krnl_page_free+0xe0>
2000a8c0:	e595e038 	ldr	lr, [r5, #56]	; 0x38
2000a8c4:	e59e2000 	ldr	r2, [lr]
2000a8c8:	e1560002 	cmp	r6, r2
2000a8cc:	128e1008 	addne	r1, lr, #8
2000a8d0:	13a02000 	movne	r2, #0
2000a8d4:	1a000003 	bne	2000a8e8 <krnl_page_free+0xcc>
2000a8d8:	ea00001e 	b	2000a958 <krnl_page_free+0x13c>
2000a8dc:	e79e0182 	ldr	r0, [lr, r2, lsl #3]
2000a8e0:	e1560000 	cmp	r6, r0
2000a8e4:	0a00001c 	beq	2000a95c <krnl_page_free+0x140>
2000a8e8:	e2822001 	add	r2, r2, #1
2000a8ec:	e1a0c001 	mov	ip, r1
2000a8f0:	e1520003 	cmp	r2, r3
2000a8f4:	e2811008 	add	r1, r1, #8
2000a8f8:	1afffff7 	bne	2000a8dc <krnl_page_free+0xc0>
2000a8fc:	e3a00000 	mov	r0, #0
2000a900:	e129f008 	msr	CPSR_fc, r8
2000a904:	e8bd8ff8 	pop	{r3, r4, r5, r6, r7, r8, r9, sl, fp, pc}
2000a908:	e35a0802 	cmp	sl, #131072	; 0x20000
2000a90c:	93a01802 	movls	r1, #131072	; 0x20000
2000a910:	9a00000e 	bls	2000a950 <krnl_page_free+0x134>
2000a914:	e35a0701 	cmp	sl, #262144	; 0x40000
2000a918:	93a01701 	movls	r1, #262144	; 0x40000
2000a91c:	9a00000b 	bls	2000a950 <krnl_page_free+0x134>
2000a920:	e35a0702 	cmp	sl, #524288	; 0x80000
2000a924:	93a01702 	movls	r1, #524288	; 0x80000
2000a928:	9a000008 	bls	2000a950 <krnl_page_free+0x134>
2000a92c:	e35a0601 	cmp	sl, #1048576	; 0x100000
2000a930:	93a01601 	movls	r1, #1048576	; 0x100000
2000a934:	9a000005 	bls	2000a950 <krnl_page_free+0x134>
2000a938:	e35a0602 	cmp	sl, #2097152	; 0x200000
2000a93c:	93a01602 	movls	r1, #2097152	; 0x200000
2000a940:	9a000002 	bls	2000a950 <krnl_page_free+0x134>
2000a944:	e35a0501 	cmp	sl, #4194304	; 0x400000
2000a948:	83a01000 	movhi	r1, #0
2000a94c:	93a01501 	movls	r1, #4194304	; 0x400000
2000a950:	e8bd4ff8 	pop	{r3, r4, r5, r6, r7, r8, r9, sl, fp, lr}
2000a954:	eafffb2f 	b	20009618 <hal_memfreeblks>
2000a958:	e1a0c00e 	mov	ip, lr
2000a95c:	e59c3004 	ldr	r3, [ip, #4]
2000a960:	e3530000 	cmp	r3, #0
2000a964:	1affffe4 	bne	2000a8fc <krnl_page_free+0xe0>
2000a968:	e5953030 	ldr	r3, [r5, #48]	; 0x30
2000a96c:	e595201c 	ldr	r2, [r5, #28]
2000a970:	e2433001 	sub	r3, r3, #1
2000a974:	e3530000 	cmp	r3, #0
2000a978:	e58c2004 	str	r2, [ip, #4]
2000a97c:	e5853030 	str	r3, [r5, #48]	; 0x30
2000a980:	e585c01c 	str	ip, [r5, #28]
2000a984:	1a000016 	bne	2000a9e4 <krnl_page_free+0x1c8>
2000a988:	e597301c 	ldr	r3, [r7, #28]
2000a98c:	e30fca6c 	movw	ip, #64108	; 0xfa6c
2000a990:	e595e008 	ldr	lr, [r5, #8]
2000a994:	e342c000 	movt	ip, #8192	; 0x2000
2000a998:	e5954004 	ldr	r4, [r5, #4]
2000a99c:	e3530000 	cmp	r3, #0
2000a9a0:	e5951014 	ldr	r1, [r5, #20]
2000a9a4:	e2852004 	add	r2, r5, #4
2000a9a8:	e5950010 	ldr	r0, [r5, #16]
2000a9ac:	12433001 	subne	r3, r3, #1
2000a9b0:	e584e004 	str	lr, [r4, #4]
2000a9b4:	e2811001 	add	r1, r1, #1
2000a9b8:	e58e4000 	str	r4, [lr]
2000a9bc:	e0601001 	rsb	r1, r0, r1
2000a9c0:	e5852004 	str	r2, [r5, #4]
2000a9c4:	e5852008 	str	r2, [r5, #8]
2000a9c8:	158c301c 	strne	r3, [ip, #28]
2000a9cc:	e1590005 	cmp	r9, r5
2000a9d0:	03a03000 	moveq	r3, #0
2000a9d4:	0587303c 	streq	r3, [r7, #60]	; 0x3c
2000a9d8:	ebfffb0e 	bl	20009618 <hal_memfreeblks>
2000a9dc:	e3500000 	cmp	r0, #0
2000a9e0:	0a000003 	beq	2000a9f4 <krnl_page_free+0x1d8>
2000a9e4:	e3a00001 	mov	r0, #1
2000a9e8:	eaffffc4 	b	2000a900 <krnl_page_free+0xe4>
2000a9ec:	e1a05009 	mov	r5, r9
2000a9f0:	eaffffaf 	b	2000a8b4 <krnl_page_free+0x98>
2000a9f4:	e30d02d4 	movw	r0, #53972	; 0xd2d4
2000a9f8:	e3420000 	movt	r0, #8192	; 0x2000
2000a9fc:	ebfff81a 	bl	20008a6c <printk>
2000aa00:	eafffffe 	b	2000aa00 <krnl_page_free+0x1e4>
2000aa04:	2000fa90 	mulcs	r0, r0, sl

2000aa08 <mplhead_isok_allocbytempl>:
2000aa08:	e2502000 	subs	r2, r0, #0
2000aa0c:	0a000014 	beq	2000aa64 <mplhead_isok_allocbytempl+0x5c>
2000aa10:	e5920018 	ldr	r0, [r2, #24]
2000aa14:	e3500000 	cmp	r0, #0
2000aa18:	012fff1e 	bxeq	lr
2000aa1c:	e592300c 	ldr	r3, [r2, #12]
2000aa20:	e3530002 	cmp	r3, #2
2000aa24:	0a000001 	beq	2000aa30 <mplhead_isok_allocbytempl+0x28>
2000aa28:	e3a00000 	mov	r0, #0
2000aa2c:	e12fff1e 	bx	lr
2000aa30:	e5920010 	ldr	r0, [r2, #16]
2000aa34:	e5923014 	ldr	r3, [r2, #20]
2000aa38:	e1500003 	cmp	r0, r3
2000aa3c:	2afffff9 	bcs	2000aa28 <mplhead_isok_allocbytempl+0x20>
2000aa40:	e5923028 	ldr	r3, [r2, #40]	; 0x28
2000aa44:	e1530001 	cmp	r3, r1
2000aa48:	1afffff6 	bne	2000aa28 <mplhead_isok_allocbytempl+0x20>
2000aa4c:	e5920020 	ldr	r0, [r2, #32]
2000aa50:	e5923030 	ldr	r3, [r2, #48]	; 0x30
2000aa54:	e1530000 	cmp	r3, r0
2000aa58:	23a00000 	movcs	r0, #0
2000aa5c:	33a00001 	movcc	r0, #1
2000aa60:	e12fff1e 	bx	lr
2000aa64:	e1a00002 	mov	r0, r2
2000aa68:	e12fff1e 	bx	lr

2000aa6c <mplhead_isok_freebytempl>:
2000aa6c:	e3500000 	cmp	r0, #0
2000aa70:	012fff1e 	bxeq	lr
2000aa74:	e590300c 	ldr	r3, [r0, #12]
2000aa78:	e3530002 	cmp	r3, #2
2000aa7c:	0a000001 	beq	2000aa88 <mplhead_isok_freebytempl+0x1c>
2000aa80:	e3a00000 	mov	r0, #0
2000aa84:	e12fff1e 	bx	lr
2000aa88:	e5903024 	ldr	r3, [r0, #36]	; 0x24
2000aa8c:	e1530002 	cmp	r3, r2
2000aa90:	1afffffa 	bne	2000aa80 <mplhead_isok_freebytempl+0x14>
2000aa94:	e5902030 	ldr	r2, [r0, #48]	; 0x30
2000aa98:	e3520000 	cmp	r2, #0
2000aa9c:	0a00000d 	beq	2000aad8 <mplhead_isok_freebytempl+0x6c>
2000aaa0:	e5902020 	ldr	r2, [r0, #32]
2000aaa4:	e3520000 	cmp	r2, #0
2000aaa8:	0a00000a 	beq	2000aad8 <mplhead_isok_freebytempl+0x6c>
2000aaac:	e5902010 	ldr	r2, [r0, #16]
2000aab0:	e282203c 	add	r2, r2, #60	; 0x3c
2000aab4:	e1510002 	cmp	r1, r2
2000aab8:	3afffff0 	bcc	2000aa80 <mplhead_isok_freebytempl+0x14>
2000aabc:	e2432001 	sub	r2, r3, #1
2000aac0:	e5903014 	ldr	r3, [r0, #20]
2000aac4:	e0820001 	add	r0, r2, r1
2000aac8:	e1500003 	cmp	r0, r3
2000aacc:	83a00000 	movhi	r0, #0
2000aad0:	93a00001 	movls	r0, #1
2000aad4:	e12fff1e 	bx	lr
2000aad8:	e1a00002 	mov	r0, r2
2000aadc:	e12fff1e 	bx	lr

2000aae0 <krnl_bytes_alloc>:
2000aae0:	e92d47f0 	push	{r4, r5, r6, r7, r8, r9, sl, lr}
2000aae4:	e1a06000 	mov	r6, r0
2000aae8:	ebfff87a 	bl	20008cd8 <raw_local_fiqirq_disable>
2000aaec:	e30f8a6c 	movw	r8, #64108	; 0xfa6c
2000aaf0:	e3428000 	movt	r8, #8192	; 0x2000
2000aaf4:	e1a09000 	mov	r9, r0
2000aaf8:	ebfff876 	bl	20008cd8 <raw_local_fiqirq_disable>
2000aafc:	e5985040 	ldr	r5, [r8, #64]	; 0x40
2000ab00:	e3550000 	cmp	r5, #0
2000ab04:	e1a0a000 	mov	sl, r0
2000ab08:	0a000004 	beq	2000ab20 <krnl_bytes_alloc+0x40>
2000ab0c:	e1a00005 	mov	r0, r5
2000ab10:	e1a01006 	mov	r1, r6
2000ab14:	ebffffbb 	bl	2000aa08 <mplhead_isok_allocbytempl>
2000ab18:	e3500001 	cmp	r0, #1
2000ab1c:	0a00000f 	beq	2000ab60 <krnl_bytes_alloc+0x80>
2000ab20:	e598402c 	ldr	r4, [r8, #44]	; 0x2c
2000ab24:	e59f7184 	ldr	r7, [pc, #388]	; 2000acb0 <krnl_bytes_alloc+0x1d0>
2000ab28:	e1540007 	cmp	r4, r7
2000ab2c:	1a000003 	bne	2000ab40 <krnl_bytes_alloc+0x60>
2000ab30:	ea00001f 	b	2000abb4 <krnl_bytes_alloc+0xd4>
2000ab34:	e5944000 	ldr	r4, [r4]
2000ab38:	e1540007 	cmp	r4, r7
2000ab3c:	0a00001c 	beq	2000abb4 <krnl_bytes_alloc+0xd4>
2000ab40:	e2445004 	sub	r5, r4, #4
2000ab44:	e1a01006 	mov	r1, r6
2000ab48:	e1a00005 	mov	r0, r5
2000ab4c:	ebffffad 	bl	2000aa08 <mplhead_isok_allocbytempl>
2000ab50:	e3500001 	cmp	r0, #1
2000ab54:	1afffff6 	bne	2000ab34 <krnl_bytes_alloc+0x54>
2000ab58:	e3550000 	cmp	r5, #0
2000ab5c:	0a000014 	beq	2000abb4 <krnl_bytes_alloc+0xd4>
2000ab60:	e5952030 	ldr	r2, [r5, #48]	; 0x30
2000ab64:	e5953020 	ldr	r3, [r5, #32]
2000ab68:	e5885040 	str	r5, [r8, #64]	; 0x40
2000ab6c:	e1520003 	cmp	r2, r3
2000ab70:	3a000003 	bcc	2000ab84 <krnl_bytes_alloc+0xa4>
2000ab74:	e3a00000 	mov	r0, #0
2000ab78:	e129f00a 	msr	CPSR_fc, sl
2000ab7c:	e129f009 	msr	CPSR_fc, r9
2000ab80:	e8bd87f0 	pop	{r4, r5, r6, r7, r8, r9, sl, pc}
2000ab84:	e5950018 	ldr	r0, [r5, #24]
2000ab88:	e3500000 	cmp	r0, #0
2000ab8c:	0afffff9 	beq	2000ab78 <krnl_bytes_alloc+0x98>
2000ab90:	e5953024 	ldr	r3, [r5, #36]	; 0x24
2000ab94:	e3a02000 	mov	r2, #0
2000ab98:	e7901003 	ldr	r1, [r0, r3]
2000ab9c:	e5851018 	str	r1, [r5, #24]
2000aba0:	e7802003 	str	r2, [r0, r3]
2000aba4:	e5953030 	ldr	r3, [r5, #48]	; 0x30
2000aba8:	e2833001 	add	r3, r3, #1
2000abac:	e5853030 	str	r3, [r5, #48]	; 0x30
2000abb0:	eafffff0 	b	2000ab78 <krnl_bytes_alloc+0x98>
2000abb4:	e3a00a01 	mov	r0, #4096	; 0x1000
2000abb8:	ebfffe6c 	bl	2000a570 <krnl_page_alloc>
2000abbc:	e3500000 	cmp	r0, #0
2000abc0:	0affffeb 	beq	2000ab74 <krnl_bytes_alloc+0x94>
2000abc4:	e7eb3050 	ubfx	r3, r0, #0, #12
2000abc8:	e1a05000 	mov	r5, r0
2000abcc:	e3530000 	cmp	r3, #0
2000abd0:	1affffe7 	bne	2000ab74 <krnl_bytes_alloc+0x94>
2000abd4:	e280303c 	add	r3, r0, #60	; 0x3c
2000abd8:	e2134003 	ands	r4, r3, #3
2000abdc:	1a00002b 	bne	2000ac90 <krnl_bytes_alloc+0x1b0>
2000abe0:	e2801eff 	add	r1, r0, #4080	; 0xff0
2000abe4:	e281100f 	add	r1, r1, #15
2000abe8:	e5804000 	str	r4, [r0]
2000abec:	e286e004 	add	lr, r6, #4
2000abf0:	e280c004 	add	ip, r0, #4
2000abf4:	e083200e 	add	r2, r3, lr
2000abf8:	e5803018 	str	r3, [r0, #24]
2000abfc:	e1510002 	cmp	r1, r2
2000ac00:	e3a03002 	mov	r3, #2
2000ac04:	e5800010 	str	r0, [r0, #16]
2000ac08:	e5801014 	str	r1, [r0, #20]
2000ac0c:	e5804020 	str	r4, [r0, #32]
2000ac10:	e5806024 	str	r6, [r0, #36]	; 0x24
2000ac14:	e5806028 	str	r6, [r0, #40]	; 0x28
2000ac18:	e5804030 	str	r4, [r0, #48]	; 0x30
2000ac1c:	e580300c 	str	r3, [r0, #12]
2000ac20:	e580e02c 	str	lr, [r0, #44]	; 0x2c
2000ac24:	e580c004 	str	ip, [r0, #4]
2000ac28:	e580c008 	str	ip, [r0, #8]
2000ac2c:	9a00001b 	bls	2000aca0 <krnl_bytes_alloc+0x1c0>
2000ac30:	e0803006 	add	r3, r0, r6
2000ac34:	e283303c 	add	r3, r3, #60	; 0x3c
2000ac38:	e0623003 	rsb	r3, r2, r3
2000ac3c:	ea000000 	b	2000ac44 <krnl_bytes_alloc+0x164>
2000ac40:	e1a02006 	mov	r2, r6
2000ac44:	e082600e 	add	r6, r2, lr
2000ac48:	e7832002 	str	r2, [r3, r2]
2000ac4c:	e1510006 	cmp	r1, r6
2000ac50:	e5904020 	ldr	r4, [r0, #32]
2000ac54:	e2844001 	add	r4, r4, #1
2000ac58:	e5804020 	str	r4, [r0, #32]
2000ac5c:	8afffff7 	bhi	2000ac40 <krnl_bytes_alloc+0x160>
2000ac60:	e3540000 	cmp	r4, #0
2000ac64:	0a00000d 	beq	2000aca0 <krnl_bytes_alloc+0x1c0>
2000ac68:	e598102c 	ldr	r1, [r8, #44]	; 0x2c
2000ac6c:	e3a03000 	mov	r3, #0
2000ac70:	e5023004 	str	r3, [r2, #-4]
2000ac74:	e5983020 	ldr	r3, [r8, #32]
2000ac78:	e581c004 	str	ip, [r1, #4]
2000ac7c:	e2833001 	add	r3, r3, #1
2000ac80:	e9800082 	stmib	r0, {r1, r7}
2000ac84:	e5883020 	str	r3, [r8, #32]
2000ac88:	e588c02c 	str	ip, [r8, #44]	; 0x2c
2000ac8c:	eaffffb3 	b	2000ab60 <krnl_bytes_alloc+0x80>
2000ac90:	e30d02f0 	movw	r0, #54000	; 0xd2f0
2000ac94:	e3420000 	movt	r0, #8192	; 0x2000
2000ac98:	ebfff773 	bl	20008a6c <printk>
2000ac9c:	eafffffe 	b	2000ac9c <krnl_bytes_alloc+0x1bc>
2000aca0:	e30d0320 	movw	r0, #54048	; 0xd320
2000aca4:	e3420000 	movt	r0, #8192	; 0x2000
2000aca8:	ebfff76f 	bl	20008a6c <printk>
2000acac:	eafffffe 	b	2000acac <krnl_bytes_alloc+0x1cc>
2000acb0:	2000fa98 	mulcs	r0, r8, sl

2000acb4 <krnl_bytes_free>:
2000acb4:	e92d4ff0 	push	{r4, r5, r6, r7, r8, r9, sl, fp, lr}
2000acb8:	e2811003 	add	r1, r1, #3
2000acbc:	e24dd00c 	sub	sp, sp, #12
2000acc0:	e3c16003 	bic	r6, r1, #3
2000acc4:	e1a05000 	mov	r5, r0
2000acc8:	ebfff802 	bl	20008cd8 <raw_local_fiqirq_disable>
2000accc:	e30f8a6c 	movw	r8, #64108	; 0xfa6c
2000acd0:	e3428000 	movt	r8, #8192	; 0x2000
2000acd4:	e58d0004 	str	r0, [sp, #4]
2000acd8:	ebfff7fe 	bl	20008cd8 <raw_local_fiqirq_disable>
2000acdc:	e5989040 	ldr	r9, [r8, #64]	; 0x40
2000ace0:	e3590000 	cmp	r9, #0
2000ace4:	e1a0b000 	mov	fp, r0
2000ace8:	0a000005 	beq	2000ad04 <krnl_bytes_free+0x50>
2000acec:	e1a00009 	mov	r0, r9
2000acf0:	e1a01005 	mov	r1, r5
2000acf4:	e1a02006 	mov	r2, r6
2000acf8:	ebffff5b 	bl	2000aa6c <mplhead_isok_freebytempl>
2000acfc:	e3500001 	cmp	r0, #1
2000ad00:	0a000044 	beq	2000ae18 <krnl_bytes_free+0x164>
2000ad04:	e598402c 	ldr	r4, [r8, #44]	; 0x2c
2000ad08:	e59f7110 	ldr	r7, [pc, #272]	; 2000ae20 <krnl_bytes_free+0x16c>
2000ad0c:	e1540007 	cmp	r4, r7
2000ad10:	1a000003 	bne	2000ad24 <krnl_bytes_free+0x70>
2000ad14:	ea000037 	b	2000adf8 <krnl_bytes_free+0x144>
2000ad18:	e5944000 	ldr	r4, [r4]
2000ad1c:	e1540007 	cmp	r4, r7
2000ad20:	0a000034 	beq	2000adf8 <krnl_bytes_free+0x144>
2000ad24:	e244a004 	sub	sl, r4, #4
2000ad28:	e1a01005 	mov	r1, r5
2000ad2c:	e1a02006 	mov	r2, r6
2000ad30:	e1a0000a 	mov	r0, sl
2000ad34:	ebffff4c 	bl	2000aa6c <mplhead_isok_freebytempl>
2000ad38:	e3500001 	cmp	r0, #1
2000ad3c:	1afffff5 	bne	2000ad18 <krnl_bytes_free+0x64>
2000ad40:	e35a0000 	cmp	sl, #0
2000ad44:	0a00002b 	beq	2000adf8 <krnl_bytes_free+0x144>
2000ad48:	e1a0300a 	mov	r3, sl
2000ad4c:	e5932024 	ldr	r2, [r3, #36]	; 0x24
2000ad50:	e5931014 	ldr	r1, [r3, #20]
2000ad54:	e0850002 	add	r0, r5, r2
2000ad58:	e1500001 	cmp	r0, r1
2000ad5c:	8a000025 	bhi	2000adf8 <krnl_bytes_free+0x144>
2000ad60:	e7951002 	ldr	r1, [r5, r2]
2000ad64:	e3510000 	cmp	r1, #0
2000ad68:	1a000022 	bne	2000adf8 <krnl_bytes_free+0x144>
2000ad6c:	e5931018 	ldr	r1, [r3, #24]
2000ad70:	e7851002 	str	r1, [r5, r2]
2000ad74:	e5932030 	ldr	r2, [r3, #48]	; 0x30
2000ad78:	e5835018 	str	r5, [r3, #24]
2000ad7c:	e2422001 	sub	r2, r2, #1
2000ad80:	e5832030 	str	r2, [r3, #48]	; 0x30
2000ad84:	e3520000 	cmp	r2, #0
2000ad88:	1a000020 	bne	2000ae10 <krnl_bytes_free+0x15c>
2000ad8c:	e5982020 	ldr	r2, [r8, #32]
2000ad90:	e30fea6c 	movw	lr, #64108	; 0xfa6c
2000ad94:	e5934008 	ldr	r4, [r3, #8]
2000ad98:	e342e000 	movt	lr, #8192	; 0x2000
2000ad9c:	e5935004 	ldr	r5, [r3, #4]
2000ada0:	e3520000 	cmp	r2, #0
2000ada4:	e5931014 	ldr	r1, [r3, #20]
2000ada8:	e283c004 	add	ip, r3, #4
2000adac:	e5930010 	ldr	r0, [r3, #16]
2000adb0:	12422001 	subne	r2, r2, #1
2000adb4:	e5854004 	str	r4, [r5, #4]
2000adb8:	e2811001 	add	r1, r1, #1
2000adbc:	e5845000 	str	r5, [r4]
2000adc0:	e0601001 	rsb	r1, r0, r1
2000adc4:	e583c004 	str	ip, [r3, #4]
2000adc8:	e583c008 	str	ip, [r3, #8]
2000adcc:	158e2020 	strne	r2, [lr, #32]
2000add0:	e1590003 	cmp	r9, r3
2000add4:	03a03000 	moveq	r3, #0
2000add8:	05883040 	streq	r3, [r8, #64]	; 0x40
2000addc:	ebfffe8e 	bl	2000a81c <krnl_page_free>
2000ade0:	e3500000 	cmp	r0, #0
2000ade4:	1a000009 	bne	2000ae10 <krnl_bytes_free+0x15c>
2000ade8:	e30d034c 	movw	r0, #54092	; 0xd34c
2000adec:	e3420000 	movt	r0, #8192	; 0x2000
2000adf0:	ebfff71d 	bl	20008a6c <printk>
2000adf4:	eafffffe 	b	2000adf4 <krnl_bytes_free+0x140>
2000adf8:	e3a00000 	mov	r0, #0
2000adfc:	e129f00b 	msr	CPSR_fc, fp
2000ae00:	e59d3004 	ldr	r3, [sp, #4]
2000ae04:	e129f003 	msr	CPSR_fc, r3
2000ae08:	e28dd00c 	add	sp, sp, #12
2000ae0c:	e8bd8ff0 	pop	{r4, r5, r6, r7, r8, r9, sl, fp, pc}
2000ae10:	e3a00001 	mov	r0, #1
2000ae14:	eafffff8 	b	2000adfc <krnl_bytes_free+0x148>
2000ae18:	e1a03009 	mov	r3, r9
2000ae1c:	eaffffca 	b	2000ad4c <krnl_bytes_free+0x98>
2000ae20:	2000fa98 	mulcs	r0, r8, sl

2000ae24 <request_irq>:
2000ae24:	e3510000 	cmp	r1, #0
2000ae28:	13520000 	cmpne	r2, #0
2000ae2c:	1a000001 	bne	2000ae38 <request_irq+0x14>
2000ae30:	e3a00000 	mov	r0, #0
2000ae34:	e12fff1e 	bx	lr
2000ae38:	e92d47f0 	push	{r4, r5, r6, r7, r8, r9, sl, lr}
2000ae3c:	e1a07000 	mov	r7, r0
2000ae40:	e1a08001 	mov	r8, r1
2000ae44:	e1a0a002 	mov	sl, r2
2000ae48:	e1a06003 	mov	r6, r3
2000ae4c:	ebfffb20 	bl	20009ad4 <hal_rtn_intdscp>
2000ae50:	e2505000 	subs	r5, r0, #0
2000ae54:	0a000046 	beq	2000af74 <request_irq+0x150>
2000ae58:	ebfff79e 	bl	20008cd8 <raw_local_fiqirq_disable>
2000ae5c:	e595300c 	ldr	r3, [r5, #12]
2000ae60:	e3530000 	cmp	r3, #0
2000ae64:	e5953014 	ldr	r3, [r5, #20]
2000ae68:	e1a09000 	mov	r9, r0
2000ae6c:	1a000031 	bne	2000af38 <request_irq+0x114>
2000ae70:	e3530080 	cmp	r3, #128	; 0x80
2000ae74:	0a000037 	beq	2000af58 <request_irq+0x134>
2000ae78:	e3a00028 	mov	r0, #40	; 0x28
2000ae7c:	ebfffd36 	bl	2000a35c <krnl_alloc>
2000ae80:	e2504000 	subs	r4, r0, #0
2000ae84:	0a000048 	beq	2000afac <request_irq+0x188>
2000ae88:	e206100f 	and	r1, r6, #15
2000ae8c:	e3a03000 	mov	r3, #0
2000ae90:	e5843000 	str	r3, [r4]
2000ae94:	e59de024 	ldr	lr, [sp, #36]	; 0x24
2000ae98:	e1a00005 	mov	r0, r5
2000ae9c:	e284c004 	add	ip, r4, #4
2000aea0:	e584c004 	str	ip, [r4, #4]
2000aea4:	e5b02004 	ldr	r2, [r0, #4]!
2000aea8:	e584e018 	str	lr, [r4, #24]
2000aeac:	e59de020 	ldr	lr, [sp, #32]
2000aeb0:	e1500002 	cmp	r0, r2
2000aeb4:	e584100c 	str	r1, [r4, #12]
2000aeb8:	e5845010 	str	r5, [r4, #16]
2000aebc:	e584a014 	str	sl, [r4, #20]
2000aec0:	e584e01c 	str	lr, [r4, #28]
2000aec4:	e5843020 	str	r3, [r4, #32]
2000aec8:	e5848024 	str	r8, [r4, #36]	; 0x24
2000aecc:	e584c008 	str	ip, [r4, #8]
2000aed0:	0a000039 	beq	2000afbc <request_irq+0x198>
2000aed4:	e5923008 	ldr	r3, [r2, #8]
2000aed8:	e1510003 	cmp	r1, r3
2000aedc:	1a000026 	bne	2000af7c <request_irq+0x158>
2000aee0:	e1a03002 	mov	r3, r2
2000aee4:	ea000002 	b	2000aef4 <request_irq+0xd0>
2000aee8:	e593e008 	ldr	lr, [r3, #8]
2000aeec:	e151000e 	cmp	r1, lr
2000aef0:	1a000021 	bne	2000af7c <request_irq+0x158>
2000aef4:	e5933000 	ldr	r3, [r3]
2000aef8:	e1500003 	cmp	r0, r3
2000aefc:	1afffff9 	bne	2000aee8 <request_irq+0xc4>
2000af00:	e595e00c 	ldr	lr, [r5, #12]
2000af04:	e1a00007 	mov	r0, r7
2000af08:	e582c004 	str	ip, [r2, #4]
2000af0c:	e20660f0 	and	r6, r6, #240	; 0xf0
2000af10:	e5842004 	str	r2, [r4, #4]
2000af14:	e28e2001 	add	r2, lr, #1
2000af18:	e5843008 	str	r3, [r4, #8]
2000af1c:	e585c004 	str	ip, [r5, #4]
2000af20:	e585200c 	str	r2, [r5, #12]
2000af24:	ebfffb0b 	bl	20009b58 <hal_exit_mode_init>
2000af28:	e1a00007 	mov	r0, r7
2000af2c:	ebfffb7a 	bl	20009d1c <hal_enalbe_irq>
2000af30:	e5856014 	str	r6, [r5, #20]
2000af34:	ea000004 	b	2000af4c <request_irq+0x128>
2000af38:	e3530080 	cmp	r3, #128	; 0x80
2000af3c:	0a000005 	beq	2000af58 <request_irq+0x134>
2000af40:	e30d0368 	movw	r0, #54120	; 0xd368
2000af44:	e3420000 	movt	r0, #8192	; 0x2000
2000af48:	ebfff6c7 	bl	20008a6c <printk>
2000af4c:	e129f009 	msr	CPSR_fc, r9
2000af50:	e3a00001 	mov	r0, #1
2000af54:	e8bd87f0 	pop	{r4, r5, r6, r7, r8, r9, sl, pc}
2000af58:	e20630f0 	and	r3, r6, #240	; 0xf0
2000af5c:	e3530080 	cmp	r3, #128	; 0x80
2000af60:	0affffc4 	beq	2000ae78 <request_irq+0x54>
2000af64:	e30d0394 	movw	r0, #54164	; 0xd394
2000af68:	e3420000 	movt	r0, #8192	; 0x2000
2000af6c:	ebfff6be 	bl	20008a6c <printk>
2000af70:	eafffff5 	b	2000af4c <request_irq+0x128>
2000af74:	e3a00000 	mov	r0, #0
2000af78:	e8bd87f0 	pop	{r4, r5, r6, r7, r8, r9, sl, pc}
2000af7c:	e30d0400 	movw	r0, #54272	; 0xd400
2000af80:	e3420000 	movt	r0, #8192	; 0x2000
2000af84:	ebfff6b8 	bl	20008a6c <printk>
2000af88:	e1a00004 	mov	r0, r4
2000af8c:	e3a01028 	mov	r1, #40	; 0x28
2000af90:	ebfffcfa 	bl	2000a380 <krnl_free>
2000af94:	e3500000 	cmp	r0, #0
2000af98:	1affffeb 	bne	2000af4c <request_irq+0x128>
2000af9c:	e30d0430 	movw	r0, #54320	; 0xd430
2000afa0:	e3420000 	movt	r0, #8192	; 0x2000
2000afa4:	ebfff6b0 	bl	20008a6c <printk>
2000afa8:	eafffffe 	b	2000afa8 <request_irq+0x184>
2000afac:	e30d03c0 	movw	r0, #54208	; 0xd3c0
2000afb0:	e3420000 	movt	r0, #8192	; 0x2000
2000afb4:	ebfff6ac 	bl	20008a6c <printk>
2000afb8:	eafffffe 	b	2000afb8 <request_irq+0x194>
2000afbc:	e1a03002 	mov	r3, r2
2000afc0:	eaffffce 	b	2000af00 <request_irq+0xdc>

2000afc4 <free_irq>:
2000afc4:	e92d40f8 	push	{r3, r4, r5, r6, r7, lr}
2000afc8:	e1a05001 	mov	r5, r1
2000afcc:	e1a07000 	mov	r7, r0
2000afd0:	ebfffabf 	bl	20009ad4 <hal_rtn_intdscp>
2000afd4:	e2504000 	subs	r4, r0, #0
2000afd8:	0a000022 	beq	2000b068 <free_irq+0xa4>
2000afdc:	ebfff73d 	bl	20008cd8 <raw_local_fiqirq_disable>
2000afe0:	e594100c 	ldr	r1, [r4, #12]
2000afe4:	e3510000 	cmp	r1, #0
2000afe8:	e1a06000 	mov	r6, r0
2000afec:	0a00001a 	beq	2000b05c <free_irq+0x98>
2000aff0:	e1a0c004 	mov	ip, r4
2000aff4:	e5bc3004 	ldr	r3, [ip, #4]!
2000aff8:	e153000c 	cmp	r3, ip
2000affc:	1a000003 	bne	2000b010 <free_irq+0x4c>
2000b000:	ea00001a 	b	2000b070 <free_irq+0xac>
2000b004:	e5933000 	ldr	r3, [r3]
2000b008:	e153000c 	cmp	r3, ip
2000b00c:	0a000017 	beq	2000b070 <free_irq+0xac>
2000b010:	e5932014 	ldr	r2, [r3, #20]
2000b014:	e1520005 	cmp	r2, r5
2000b018:	1afffff9 	bne	2000b004 <free_irq+0x40>
2000b01c:	e5932004 	ldr	r2, [r3, #4]
2000b020:	e2430004 	sub	r0, r3, #4
2000b024:	e593c000 	ldr	ip, [r3]
2000b028:	e3a01028 	mov	r1, #40	; 0x28
2000b02c:	e58c2004 	str	r2, [ip, #4]
2000b030:	e582c000 	str	ip, [r2]
2000b034:	e5833000 	str	r3, [r3]
2000b038:	e5833004 	str	r3, [r3, #4]
2000b03c:	ebfffccf 	bl	2000a380 <krnl_free>
2000b040:	e3500000 	cmp	r0, #0
2000b044:	0a00000c 	beq	2000b07c <free_irq+0xb8>
2000b048:	e594100c 	ldr	r1, [r4, #12]
2000b04c:	e3510000 	cmp	r1, #0
2000b050:	1a000006 	bne	2000b070 <free_irq+0xac>
2000b054:	e1a00007 	mov	r0, r7
2000b058:	ebfffb8b 	bl	20009e8c <hal_disalbe_irq>
2000b05c:	e129f006 	msr	CPSR_fc, r6
2000b060:	e3a00001 	mov	r0, #1
2000b064:	e8bd80f8 	pop	{r3, r4, r5, r6, r7, pc}
2000b068:	e1a00004 	mov	r0, r4
2000b06c:	e8bd80f8 	pop	{r3, r4, r5, r6, r7, pc}
2000b070:	e2411001 	sub	r1, r1, #1
2000b074:	e584100c 	str	r1, [r4, #12]
2000b078:	eafffff5 	b	2000b054 <free_irq+0x90>
2000b07c:	e30d0430 	movw	r0, #54320	; 0xd430
2000b080:	e3420000 	movt	r0, #8192	; 0x2000
2000b084:	ebfff678 	bl	20008a6c <printk>
2000b088:	eafffffe 	b	2000b088 <free_irq+0xc4>

2000b08c <irq_handler>:
2000b08c:	e2501000 	subs	r1, r0, #0
2000b090:	e52de004 	push	{lr}		; (str lr, [sp, #-4]!)
2000b094:	030d0470 	movweq	r0, #54384	; 0xd470
2000b098:	e24dd00c 	sub	sp, sp, #12
2000b09c:	03420000 	movteq	r0, #8192	; 0x2000
2000b0a0:	0a000008 	beq	2000b0c8 <irq_handler+0x3c>
2000b0a4:	e3510002 	cmp	r1, #2
2000b0a8:	0a00001a 	beq	2000b118 <irq_handler+0x8c>
2000b0ac:	e3510003 	cmp	r1, #3
2000b0b0:	0a000007 	beq	2000b0d4 <irq_handler+0x48>
2000b0b4:	e28dd00c 	add	sp, sp, #12
2000b0b8:	e49df004 	pop	{pc}		; (ldr pc, [sp], #4)
2000b0bc:	e30d04c0 	movw	r0, #54464	; 0xd4c0
2000b0c0:	e3a01000 	mov	r1, #0
2000b0c4:	e3420000 	movt	r0, #8192	; 0x2000
2000b0c8:	e28dd00c 	add	sp, sp, #12
2000b0cc:	e49de004 	pop	{lr}		; (ldr lr, [sp], #4)
2000b0d0:	eafff665 	b	20008a6c <printk>
2000b0d4:	e30d04ec 	movw	r0, #54508	; 0xd4ec
2000b0d8:	e3420000 	movt	r0, #8192	; 0x2000
2000b0dc:	ebfff662 	bl	20008a6c <printk>
2000b0e0:	e30f2ab4 	movw	r2, #64180	; 0xfab4
2000b0e4:	e30d3530 	movw	r3, #54576	; 0xd530
2000b0e8:	e30b108c 	movw	r1, #45196	; 0xb08c
2000b0ec:	e3422000 	movt	r2, #8192	; 0x2000
2000b0f0:	e3423000 	movt	r3, #8192	; 0x2000
2000b0f4:	e58d2004 	str	r2, [sp, #4]
2000b0f8:	e3421000 	movt	r1, #8192	; 0x2000
2000b0fc:	e58d3000 	str	r3, [sp]
2000b100:	e2822004 	add	r2, r2, #4
2000b104:	e3a03002 	mov	r3, #2
2000b108:	e3a00000 	mov	r0, #0
2000b10c:	ebffff44 	bl	2000ae24 <request_irq>
2000b110:	e28dd00c 	add	sp, sp, #12
2000b114:	e49df004 	pop	{pc}		; (ldr pc, [sp], #4)
2000b118:	e30d0494 	movw	r0, #54420	; 0xd494
2000b11c:	e3420000 	movt	r0, #8192	; 0x2000
2000b120:	ebfff651 	bl	20008a6c <printk>
2000b124:	e30f1ab4 	movw	r1, #64180	; 0xfab4
2000b128:	e3421000 	movt	r1, #8192	; 0x2000
2000b12c:	e3a00000 	mov	r0, #0
2000b130:	ebffffa3 	bl	2000afc4 <free_irq>
2000b134:	e3500001 	cmp	r0, #1
2000b138:	0affffdf 	beq	2000b0bc <irq_handler+0x30>
2000b13c:	e30d04d8 	movw	r0, #54488	; 0xd4d8
2000b140:	e3420000 	movt	r0, #8192	; 0x2000
2000b144:	e28dd00c 	add	sp, sp, #12
2000b148:	e49de004 	pop	{lr}		; (ldr lr, [sp], #4)
2000b14c:	eafff646 	b	20008a6c <printk>

2000b150 <interrupt_test>:
2000b150:	e92d40f0 	push	{r4, r5, r6, r7, lr}
2000b154:	e30f6ab4 	movw	r6, #64180	; 0xfab4
2000b158:	e24dd00c 	sub	sp, sp, #12
2000b15c:	e3426000 	movt	r6, #8192	; 0x2000
2000b160:	e30b408c 	movw	r4, #45196	; 0xb08c
2000b164:	e2865004 	add	r5, r6, #4
2000b168:	e3424000 	movt	r4, #8192	; 0x2000
2000b16c:	e30d3530 	movw	r3, #54576	; 0xd530
2000b170:	e1a02005 	mov	r2, r5
2000b174:	e1a01004 	mov	r1, r4
2000b178:	e58d6004 	str	r6, [sp, #4]
2000b17c:	e3423000 	movt	r3, #8192	; 0x2000
2000b180:	e3a00000 	mov	r0, #0
2000b184:	e58d3000 	str	r3, [sp]
2000b188:	e3a03002 	mov	r3, #2
2000b18c:	e2867008 	add	r7, r6, #8
2000b190:	ebffff23 	bl	2000ae24 <request_irq>
2000b194:	e30d3538 	movw	r3, #54584	; 0xd538
2000b198:	e1a02005 	mov	r2, r5
2000b19c:	e1a01004 	mov	r1, r4
2000b1a0:	e58d7004 	str	r7, [sp, #4]
2000b1a4:	e3423000 	movt	r3, #8192	; 0x2000
2000b1a8:	e3a00001 	mov	r0, #1
2000b1ac:	e58d3000 	str	r3, [sp]
2000b1b0:	e3a03002 	mov	r3, #2
2000b1b4:	ebffff1a 	bl	2000ae24 <request_irq>
2000b1b8:	e3a00002 	mov	r0, #2
2000b1bc:	e30dc540 	movw	ip, #54592	; 0xd540
2000b1c0:	e1a02005 	mov	r2, r5
2000b1c4:	e342c000 	movt	ip, #8192	; 0x2000
2000b1c8:	e1a01004 	mov	r1, r4
2000b1cc:	e58dc000 	str	ip, [sp]
2000b1d0:	e1a03000 	mov	r3, r0
2000b1d4:	e58d6004 	str	r6, [sp, #4]
2000b1d8:	ebffff11 	bl	2000ae24 <request_irq>
2000b1dc:	e30d3548 	movw	r3, #54600	; 0xd548
2000b1e0:	e1a02005 	mov	r2, r5
2000b1e4:	e1a01004 	mov	r1, r4
2000b1e8:	e58d7004 	str	r7, [sp, #4]
2000b1ec:	e3423000 	movt	r3, #8192	; 0x2000
2000b1f0:	e3a00003 	mov	r0, #3
2000b1f4:	e58d3000 	str	r3, [sp]
2000b1f8:	e3a03002 	mov	r3, #2
2000b1fc:	ebffff08 	bl	2000ae24 <request_irq>
2000b200:	e30d3554 	movw	r3, #54612	; 0xd554
2000b204:	e1a02005 	mov	r2, r5
2000b208:	e1a01004 	mov	r1, r4
2000b20c:	e58d7004 	str	r7, [sp, #4]
2000b210:	e3423000 	movt	r3, #8192	; 0x2000
2000b214:	e3a00004 	mov	r0, #4
2000b218:	e58d3000 	str	r3, [sp]
2000b21c:	e3a03002 	mov	r3, #2
2000b220:	ebfffeff 	bl	2000ae24 <request_irq>
2000b224:	e30d3560 	movw	r3, #54624	; 0xd560
2000b228:	e1a02005 	mov	r2, r5
2000b22c:	e1a01004 	mov	r1, r4
2000b230:	e58d6004 	str	r6, [sp, #4]
2000b234:	e3423000 	movt	r3, #8192	; 0x2000
2000b238:	e3a00005 	mov	r0, #5
2000b23c:	e58d3000 	str	r3, [sp]
2000b240:	e3a03002 	mov	r3, #2
2000b244:	ebfffef6 	bl	2000ae24 <request_irq>
2000b248:	e30d3568 	movw	r3, #54632	; 0xd568
2000b24c:	e1a02005 	mov	r2, r5
2000b250:	e1a01004 	mov	r1, r4
2000b254:	e58d7004 	str	r7, [sp, #4]
2000b258:	e3423000 	movt	r3, #8192	; 0x2000
2000b25c:	e3a00086 	mov	r0, #134	; 0x86
2000b260:	e58d3000 	str	r3, [sp]
2000b264:	e3a03002 	mov	r3, #2
2000b268:	ebfffeed 	bl	2000ae24 <request_irq>
2000b26c:	e30d3570 	movw	r3, #54640	; 0xd570
2000b270:	e58d7004 	str	r7, [sp, #4]
2000b274:	e1a02005 	mov	r2, r5
2000b278:	e1a01004 	mov	r1, r4
2000b27c:	e3423000 	movt	r3, #8192	; 0x2000
2000b280:	e3a00087 	mov	r0, #135	; 0x87
2000b284:	e58d3000 	str	r3, [sp]
2000b288:	e3a03002 	mov	r3, #2
2000b28c:	ebfffee4 	bl	2000ae24 <request_irq>
2000b290:	e28dd00c 	add	sp, sp, #12
2000b294:	e8bd80f0 	pop	{r4, r5, r6, r7, pc}

2000b298 <default_read>:
2000b298:	e3e00000 	mvn	r0, #0
2000b29c:	e12fff1e 	bx	lr

2000b2a0 <default_write>:
2000b2a0:	e3e00000 	mvn	r0, #0
2000b2a4:	e12fff1e 	bx	lr

2000b2a8 <default_ioctl>:
2000b2a8:	e3e00000 	mvn	r0, #0
2000b2ac:	e12fff1e 	bx	lr

2000b2b0 <default_open>:
2000b2b0:	e3e00000 	mvn	r0, #0
2000b2b4:	e12fff1e 	bx	lr

2000b2b8 <register_chrdev>:
2000b2b8:	e92d47f0 	push	{r4, r5, r6, r7, r8, r9, sl, lr}
2000b2bc:	e1a05000 	mov	r5, r0
2000b2c0:	e3a00068 	mov	r0, #104	; 0x68
2000b2c4:	e1a06001 	mov	r6, r1
2000b2c8:	e1a0a002 	mov	sl, r2
2000b2cc:	ebfffc22 	bl	2000a35c <krnl_alloc>
2000b2d0:	e2507000 	subs	r7, r0, #0
2000b2d4:	0a000057 	beq	2000b438 <register_chrdev+0x180>
2000b2d8:	e3a04000 	mov	r4, #0
2000b2dc:	e5874000 	str	r4, [r7]
2000b2e0:	e2879044 	add	r9, r7, #68	; 0x44
2000b2e4:	e2873004 	add	r3, r7, #4
2000b2e8:	e287000c 	add	r0, r7, #12
2000b2ec:	e5873004 	str	r3, [r7, #4]
2000b2f0:	e5873008 	str	r3, [r7, #8]
2000b2f4:	e3a01001 	mov	r1, #1
2000b2f8:	ebfffc48 	bl	2000a420 <krnl_sem_init>
2000b2fc:	e3a02020 	mov	r2, #32
2000b300:	e1a01004 	mov	r1, r4
2000b304:	e5874024 	str	r4, [r7, #36]	; 0x24
2000b308:	e5874028 	str	r4, [r7, #40]	; 0x28
2000b30c:	e1a00009 	mov	r0, r9
2000b310:	e587402c 	str	r4, [r7, #44]	; 0x2c
2000b314:	e5874030 	str	r4, [r7, #48]	; 0x30
2000b318:	e5874034 	str	r4, [r7, #52]	; 0x34
2000b31c:	e5874038 	str	r4, [r7, #56]	; 0x38
2000b320:	e587403c 	str	r4, [r7, #60]	; 0x3c
2000b324:	e5874040 	str	r4, [r7, #64]	; 0x40
2000b328:	eb0005ed 	bl	2000cae4 <memset>
2000b32c:	e5874064 	str	r4, [r7, #100]	; 0x64
2000b330:	ebfff668 	bl	20008cd8 <raw_local_fiqirq_disable>
2000b334:	e1b03a25 	lsrs	r3, r5, #20
2000b338:	17f32055 	ubfxne	r2, r5, #0, #20
2000b33c:	11a04003 	movne	r4, r3
2000b340:	e1a08000 	mov	r8, r0
2000b344:	11822a03 	orrne	r2, r2, r3, lsl #20
2000b348:	1a000013 	bne	2000b39c <register_chrdev+0xe4>
2000b34c:	e59f20fc 	ldr	r2, [pc, #252]	; 2000b450 <register_chrdev+0x198>
2000b350:	e3a030ff 	mov	r3, #255	; 0xff
2000b354:	ea000001 	b	2000b360 <register_chrdev+0xa8>
2000b358:	e2533001 	subs	r3, r3, #1
2000b35c:	3a000037 	bcc	2000b440 <register_chrdev+0x188>
2000b360:	e5321004 	ldr	r1, [r2, #-4]!
2000b364:	e3510000 	cmp	r1, #0
2000b368:	1afffffa 	bne	2000b358 <register_chrdev+0xa0>
2000b36c:	e3530000 	cmp	r3, #0
2000b370:	1a000007 	bne	2000b394 <register_chrdev+0xdc>
2000b374:	e3a04000 	mov	r4, #0
2000b378:	e5864000 	str	r4, [r6]
2000b37c:	e129f008 	msr	CPSR_fc, r8
2000b380:	e3a01068 	mov	r1, #104	; 0x68
2000b384:	e1a00007 	mov	r0, r7
2000b388:	ebfffbfc 	bl	2000a380 <krnl_free>
2000b38c:	e1a00004 	mov	r0, r4
2000b390:	e8bd87f0 	pop	{r4, r5, r6, r7, r8, r9, sl, pc}
2000b394:	e1a02a03 	lsl	r2, r3, #20
2000b398:	e1a04003 	mov	r4, r3
2000b39c:	e587202c 	str	r2, [r7, #44]	; 0x2c
2000b3a0:	e1a00009 	mov	r0, r9
2000b3a4:	e1a0100a 	mov	r1, sl
2000b3a8:	e3a02020 	mov	r2, #32
2000b3ac:	eb0005be 	bl	2000caac <strlcpy>
2000b3b0:	e30f366c 	movw	r3, #63084	; 0xf66c
2000b3b4:	e3423000 	movt	r3, #8192	; 0x2000
2000b3b8:	e0830104 	add	r0, r3, r4, lsl #2
2000b3bc:	e793c104 	ldr	ip, [r3, r4, lsl #2]
2000b3c0:	e35c0000 	cmp	ip, #0
2000b3c4:	0a000015 	beq	2000b420 <register_chrdev+0x168>
2000b3c8:	e59c302c 	ldr	r3, [ip, #44]	; 0x2c
2000b3cc:	e1530005 	cmp	r3, r5
2000b3d0:	1a000007 	bne	2000b3f4 <register_chrdev+0x13c>
2000b3d4:	eaffffe6 	b	2000b374 <register_chrdev+0xbc>
2000b3d8:	e592302c 	ldr	r3, [r2, #44]	; 0x2c
2000b3dc:	e1550003 	cmp	r5, r3
2000b3e0:	3a00000e 	bcc	2000b420 <register_chrdev+0x168>
2000b3e4:	e28c0064 	add	r0, ip, #100	; 0x64
2000b3e8:	e1530005 	cmp	r3, r5
2000b3ec:	e1a0c002 	mov	ip, r2
2000b3f0:	0affffdf 	beq	2000b374 <register_chrdev+0xbc>
2000b3f4:	e59c2064 	ldr	r2, [ip, #100]	; 0x64
2000b3f8:	e2921000 	adds	r1, r2, #0
2000b3fc:	13a01001 	movne	r1, #1
2000b400:	e3520000 	cmp	r2, #0
2000b404:	11550003 	cmpne	r5, r3
2000b408:	8afffff2 	bhi	2000b3d8 <register_chrdev+0x120>
2000b40c:	e3510000 	cmp	r1, #0
2000b410:	e28c0064 	add	r0, ip, #100	; 0x64
2000b414:	1592302c 	ldrne	r3, [r2, #44]	; 0x2c
2000b418:	1afffff2 	bne	2000b3e8 <register_chrdev+0x130>
2000b41c:	e1a0c001 	mov	ip, r1
2000b420:	e587c064 	str	ip, [r7, #100]	; 0x64
2000b424:	e5807000 	str	r7, [r0]
2000b428:	e5867000 	str	r7, [r6]
2000b42c:	e129f008 	msr	CPSR_fc, r8
2000b430:	e597002c 	ldr	r0, [r7, #44]	; 0x2c
2000b434:	e8bd87f0 	pop	{r4, r5, r6, r7, r8, r9, sl, pc}
2000b438:	e1a00007 	mov	r0, r7
2000b43c:	e8bd87f0 	pop	{r4, r5, r6, r7, r8, r9, sl, pc}
2000b440:	e3a02000 	mov	r2, #0
2000b444:	e1a04003 	mov	r4, r3
2000b448:	e34f2ff0 	movt	r2, #65520	; 0xfff0
2000b44c:	eaffffd2 	b	2000b39c <register_chrdev+0xe4>
2000b450:	2000fa6c 	andcs	pc, r0, ip, ror #20

2000b454 <driver_add_device>:
2000b454:	e92d40f8 	push	{r3, r4, r5, r6, r7, lr}
2000b458:	e1a04000 	mov	r4, r0
2000b45c:	e5b4303c 	ldr	r3, [r4, #60]!	; 0x3c
2000b460:	e2815004 	add	r5, r1, #4
2000b464:	e1530004 	cmp	r3, r4
2000b468:	0a000007 	beq	2000b48c <driver_add_device+0x38>
2000b46c:	e1530005 	cmp	r3, r5
2000b470:	1a000002 	bne	2000b480 <driver_add_device+0x2c>
2000b474:	ea00000e 	b	2000b4b4 <driver_add_device+0x60>
2000b478:	e1530005 	cmp	r3, r5
2000b47c:	08bd80f8 	popeq	{r3, r4, r5, r6, r7, pc}
2000b480:	e5933000 	ldr	r3, [r3]
2000b484:	e1530004 	cmp	r3, r4
2000b488:	1afffffa 	bne	2000b478 <driver_add_device+0x24>
2000b48c:	e1a06000 	mov	r6, r0
2000b490:	e1a07001 	mov	r7, r1
2000b494:	ebfff60f 	bl	20008cd8 <raw_local_fiqirq_disable>
2000b498:	e596303c 	ldr	r3, [r6, #60]	; 0x3c
2000b49c:	e5876030 	str	r6, [r7, #48]	; 0x30
2000b4a0:	e5835004 	str	r5, [r3, #4]
2000b4a4:	e9870018 	stmib	r7, {r3, r4}
2000b4a8:	e586503c 	str	r5, [r6, #60]	; 0x3c
2000b4ac:	e129f000 	msr	CPSR_fc, r0
2000b4b0:	e8bd80f8 	pop	{r3, r4, r5, r6, r7, pc}
2000b4b4:	e8bd80f8 	pop	{r3, r4, r5, r6, r7, pc}

2000b4b8 <driver_alloc>:
2000b4b8:	e92d41f0 	push	{r4, r5, r6, r7, r8, lr}
2000b4bc:	e1a08000 	mov	r8, r0
2000b4c0:	e3a00078 	mov	r0, #120	; 0x78
2000b4c4:	e1a06001 	mov	r6, r1
2000b4c8:	ebfffba3 	bl	2000a35c <krnl_alloc>
2000b4cc:	e2504000 	subs	r4, r0, #0
2000b4d0:	0a000031 	beq	2000b59c <driver_alloc+0xe4>
2000b4d4:	e3a05000 	mov	r5, #0
2000b4d8:	e5845000 	str	r5, [r4]
2000b4dc:	e2847058 	add	r7, r4, #88	; 0x58
2000b4e0:	e2843004 	add	r3, r4, #4
2000b4e4:	e2840014 	add	r0, r4, #20
2000b4e8:	e5843004 	str	r3, [r4, #4]
2000b4ec:	e5843008 	str	r3, [r4, #8]
2000b4f0:	e3a01001 	mov	r1, #1
2000b4f4:	ebfffbc9 	bl	2000a420 <krnl_sem_init>
2000b4f8:	e284303c 	add	r3, r4, #60	; 0x3c
2000b4fc:	e1a01005 	mov	r1, r5
2000b500:	e3a02020 	mov	r2, #32
2000b504:	e584303c 	str	r3, [r4, #60]	; 0x3c
2000b508:	e1a00007 	mov	r0, r7
2000b50c:	e5843040 	str	r3, [r4, #64]	; 0x40
2000b510:	e584500c 	str	r5, [r4, #12]
2000b514:	e5845010 	str	r5, [r4, #16]
2000b518:	e5845034 	str	r5, [r4, #52]	; 0x34
2000b51c:	e5845038 	str	r5, [r4, #56]	; 0x38
2000b520:	e5845044 	str	r5, [r4, #68]	; 0x44
2000b524:	e5845048 	str	r5, [r4, #72]	; 0x48
2000b528:	e584504c 	str	r5, [r4, #76]	; 0x4c
2000b52c:	e5845050 	str	r5, [r4, #80]	; 0x50
2000b530:	e5845054 	str	r5, [r4, #84]	; 0x54
2000b534:	eb00056a 	bl	2000cae4 <memset>
2000b538:	e5963000 	ldr	r3, [r6]
2000b53c:	e5846038 	str	r6, [r4, #56]	; 0x38
2000b540:	e1a00007 	mov	r0, r7
2000b544:	e1530005 	cmp	r3, r5
2000b548:	e1a01008 	mov	r1, r8
2000b54c:	e3a02020 	mov	r2, #32
2000b550:	030b3298 	movweq	r3, #45720	; 0xb298
2000b554:	03423000 	movteq	r3, #8192	; 0x2000
2000b558:	05863000 	streq	r3, [r6]
2000b55c:	e5963004 	ldr	r3, [r6, #4]
2000b560:	e3530000 	cmp	r3, #0
2000b564:	030b32a0 	movweq	r3, #45728	; 0xb2a0
2000b568:	03423000 	movteq	r3, #8192	; 0x2000
2000b56c:	05863004 	streq	r3, [r6, #4]
2000b570:	e5963008 	ldr	r3, [r6, #8]
2000b574:	e3530000 	cmp	r3, #0
2000b578:	030b32a8 	movweq	r3, #45736	; 0xb2a8
2000b57c:	03423000 	movteq	r3, #8192	; 0x2000
2000b580:	05863008 	streq	r3, [r6, #8]
2000b584:	e596300c 	ldr	r3, [r6, #12]
2000b588:	e3530000 	cmp	r3, #0
2000b58c:	030b32b0 	movweq	r3, #45744	; 0xb2b0
2000b590:	03423000 	movteq	r3, #8192	; 0x2000
2000b594:	0586300c 	streq	r3, [r6, #12]
2000b598:	eb000543 	bl	2000caac <strlcpy>
2000b59c:	e1a00004 	mov	r0, r4
2000b5a0:	e8bd81f0 	pop	{r4, r5, r6, r7, r8, pc}

2000b5a4 <driver_add_system>:
2000b5a4:	e92d4010 	push	{r4, lr}
2000b5a8:	e1a04000 	mov	r4, r0
2000b5ac:	ebfff5c9 	bl	20008cd8 <raw_local_fiqirq_disable>
2000b5b0:	e30f2664 	movw	r2, #63076	; 0xf664
2000b5b4:	e2841004 	add	r1, r4, #4
2000b5b8:	e3422000 	movt	r2, #8192	; 0x2000
2000b5bc:	e5923000 	ldr	r3, [r2]
2000b5c0:	e1530002 	cmp	r3, r2
2000b5c4:	1a000003 	bne	2000b5d8 <driver_add_system+0x34>
2000b5c8:	ea000006 	b	2000b5e8 <driver_add_system+0x44>
2000b5cc:	e5933000 	ldr	r3, [r3]
2000b5d0:	e1530002 	cmp	r3, r2
2000b5d4:	0a000003 	beq	2000b5e8 <driver_add_system+0x44>
2000b5d8:	e1530001 	cmp	r3, r1
2000b5dc:	1afffffa 	bne	2000b5cc <driver_add_system+0x28>
2000b5e0:	e3a00000 	mov	r0, #0
2000b5e4:	e8bd8010 	pop	{r4, pc}
2000b5e8:	e5923004 	ldr	r3, [r2, #4]
2000b5ec:	e5821004 	str	r1, [r2, #4]
2000b5f0:	e984000c 	stmib	r4, {r2, r3}
2000b5f4:	e5831000 	str	r1, [r3]
2000b5f8:	e129f000 	msr	CPSR_fc, r0
2000b5fc:	e3a00001 	mov	r0, #1
2000b600:	e8bd8010 	pop	{r4, pc}

2000b604 <driver_system_init>:
2000b604:	e30f366c 	movw	r3, #63084	; 0xf66c
2000b608:	e3a01000 	mov	r1, #0
2000b60c:	e3423000 	movt	r3, #8192	; 0x2000
2000b610:	e2832fff 	add	r2, r3, #1020	; 0x3fc
2000b614:	e5a31004 	str	r1, [r3, #4]!
2000b618:	e1530002 	cmp	r3, r2
2000b61c:	1afffffc 	bne	2000b614 <driver_system_init+0x10>
2000b620:	e30f3664 	movw	r3, #63076	; 0xf664
2000b624:	e3423000 	movt	r3, #8192	; 0x2000
2000b628:	e5833000 	str	r3, [r3]
2000b62c:	e5833004 	str	r3, [r3, #4]
2000b630:	e12fff1e 	bx	lr

2000b634 <driver_load>:
2000b634:	e92d4010 	push	{r4, lr}
2000b638:	e30f465c 	movw	r4, #63068	; 0xf65c
2000b63c:	e3424000 	movt	r4, #8192	; 0x2000
2000b640:	e5943000 	ldr	r3, [r4]
2000b644:	e3530000 	cmp	r3, #0
2000b648:	1a000003 	bne	2000b65c <driver_load+0x28>
2000b64c:	e8bd8010 	pop	{r4, pc}
2000b650:	e5b43004 	ldr	r3, [r4, #4]!
2000b654:	e3530000 	cmp	r3, #0
2000b658:	0a000006 	beq	2000b678 <driver_load+0x44>
2000b65c:	e12fff33 	blx	r3
2000b660:	e3700001 	cmn	r0, #1
2000b664:	1afffff9 	bne	2000b650 <driver_load+0x1c>
2000b668:	e30d057c 	movw	r0, #54652	; 0xd57c
2000b66c:	e3420000 	movt	r0, #8192	; 0x2000
2000b670:	ebfff4fd 	bl	20008a6c <printk>
2000b674:	eafffffe 	b	2000b674 <driver_load+0x40>
2000b678:	e8bd8010 	pop	{r4, pc}

2000b67c <driver_list_all>:
2000b67c:	e92d40f8 	push	{r3, r4, r5, r6, r7, lr}
2000b680:	e30d0598 	movw	r0, #54680	; 0xd598
2000b684:	e30f7664 	movw	r7, #63076	; 0xf664
2000b688:	e3420000 	movt	r0, #8192	; 0x2000
2000b68c:	e3427000 	movt	r7, #8192	; 0x2000
2000b690:	ebfff4f5 	bl	20008a6c <printk>
2000b694:	e5976000 	ldr	r6, [r7]
2000b698:	e1560007 	cmp	r6, r7
2000b69c:	08bd80f8 	popeq	{r3, r4, r5, r6, r7, pc}
2000b6a0:	e30d05b4 	movw	r0, #54708	; 0xd5b4
2000b6a4:	e1a05006 	mov	r5, r6
2000b6a8:	e2861054 	add	r1, r6, #84	; 0x54
2000b6ac:	e3420000 	movt	r0, #8192	; 0x2000
2000b6b0:	ebfff4ed 	bl	20008a6c <printk>
2000b6b4:	e5b54038 	ldr	r4, [r5, #56]!	; 0x38
2000b6b8:	e1540005 	cmp	r4, r5
2000b6bc:	0a000009 	beq	2000b6e8 <driver_list_all+0x6c>
2000b6c0:	e5942028 	ldr	r2, [r4, #40]	; 0x28
2000b6c4:	e30d05b8 	movw	r0, #54712	; 0xd5b8
2000b6c8:	e2841040 	add	r1, r4, #64	; 0x40
2000b6cc:	e3420000 	movt	r0, #8192	; 0x2000
2000b6d0:	e7f33052 	ubfx	r3, r2, #0, #20
2000b6d4:	e1a02a22 	lsr	r2, r2, #20
2000b6d8:	ebfff4e3 	bl	20008a6c <printk>
2000b6dc:	e5944000 	ldr	r4, [r4]
2000b6e0:	e1540005 	cmp	r4, r5
2000b6e4:	1afffff5 	bne	2000b6c0 <driver_list_all+0x44>
2000b6e8:	e5966000 	ldr	r6, [r6]
2000b6ec:	e1560007 	cmp	r6, r7
2000b6f0:	1affffea 	bne	2000b6a0 <driver_list_all+0x24>
2000b6f4:	e8bd80f8 	pop	{r3, r4, r5, r6, r7, pc}

2000b6f8 <krnl_new_thread_dscp>:
2000b6f8:	e92d4010 	push	{r4, lr}
2000b6fc:	e3a00070 	mov	r0, #112	; 0x70
2000b700:	ebfffb15 	bl	2000a35c <krnl_alloc>
2000b704:	e3500000 	cmp	r0, #0
2000b708:	08bd8010 	popeq	{r4, pc}
2000b70c:	e3a02000 	mov	r2, #0
2000b710:	e5802000 	str	r2, [r0]
2000b714:	e280c06c 	add	ip, r0, #108	; 0x6c
2000b718:	e1a03000 	mov	r3, r0
2000b71c:	e1a01002 	mov	r1, r2
2000b720:	e280e004 	add	lr, r0, #4
2000b724:	e580200c 	str	r2, [r0, #12]
2000b728:	e3a04040 	mov	r4, #64	; 0x40
2000b72c:	e5802010 	str	r2, [r0, #16]
2000b730:	e5802014 	str	r2, [r0, #20]
2000b734:	e5800018 	str	r0, [r0, #24]
2000b738:	e580201c 	str	r2, [r0, #28]
2000b73c:	e5802020 	str	r2, [r0, #32]
2000b740:	e5802028 	str	r2, [r0, #40]	; 0x28
2000b744:	e580202c 	str	r2, [r0, #44]	; 0x2c
2000b748:	e5802030 	str	r2, [r0, #48]	; 0x30
2000b74c:	e5802034 	str	r2, [r0, #52]	; 0x34
2000b750:	e5802038 	str	r2, [r0, #56]	; 0x38
2000b754:	e580203c 	str	r2, [r0, #60]	; 0x3c
2000b758:	e5802040 	str	r2, [r0, #64]	; 0x40
2000b75c:	e5802044 	str	r2, [r0, #68]	; 0x44
2000b760:	e5802048 	str	r2, [r0, #72]	; 0x48
2000b764:	e5804024 	str	r4, [r0, #36]	; 0x24
2000b768:	e580e004 	str	lr, [r0, #4]
2000b76c:	e580e008 	str	lr, [r0, #8]
2000b770:	e5a3204c 	str	r2, [r3, #76]!	; 0x4c
2000b774:	e5a31004 	str	r1, [r3, #4]!
2000b778:	e153000c 	cmp	r3, ip
2000b77c:	1afffffc 	bne	2000b774 <krnl_new_thread_dscp+0x7c>
2000b780:	e8bd8010 	pop	{r4, pc}

2000b784 <krnl_new_thread_stack_init>:
2000b784:	e92d4030 	push	{r4, r5, lr}
2000b788:	e3a0e000 	mov	lr, #0
2000b78c:	e590502c 	ldr	r5, [r0, #44]	; 0x2c
2000b790:	e5904034 	ldr	r4, [r0, #52]	; 0x34
2000b794:	e3c5500f 	bic	r5, r5, #15
2000b798:	e580502c 	str	r5, [r0, #44]	; 0x2c
2000b79c:	e3c4400f 	bic	r4, r4, #15
2000b7a0:	e245c03c 	sub	ip, r5, #60	; 0x3c
2000b7a4:	e5804034 	str	r4, [r0, #52]	; 0x34
2000b7a8:	e505e03c 	str	lr, [r5, #-60]	; 0xffffffc4
2000b7ac:	e505e038 	str	lr, [r5, #-56]	; 0xffffffc8
2000b7b0:	e505e034 	str	lr, [r5, #-52]	; 0xffffffcc
2000b7b4:	e505e030 	str	lr, [r5, #-48]	; 0xffffffd0
2000b7b8:	e505e02c 	str	lr, [r5, #-44]	; 0xffffffd4
2000b7bc:	e505e028 	str	lr, [r5, #-40]	; 0xffffffd8
2000b7c0:	e505e024 	str	lr, [r5, #-36]	; 0xffffffdc
2000b7c4:	e505e020 	str	lr, [r5, #-32]	; 0xffffffe0
2000b7c8:	e505e01c 	str	lr, [r5, #-28]	; 0xffffffe4
2000b7cc:	e505e018 	str	lr, [r5, #-24]	; 0xffffffe8
2000b7d0:	e505e014 	str	lr, [r5, #-20]	; 0xffffffec
2000b7d4:	e505e010 	str	lr, [r5, #-16]
2000b7d8:	e505e00c 	str	lr, [r5, #-12]
2000b7dc:	e5054008 	str	r4, [r5, #-8]
2000b7e0:	e5051004 	str	r1, [r5, #-4]
2000b7e4:	e5803044 	str	r3, [r0, #68]	; 0x44
2000b7e8:	e580c040 	str	ip, [r0, #64]	; 0x40
2000b7ec:	e580403c 	str	r4, [r0, #60]	; 0x3c
2000b7f0:	e5802048 	str	r2, [r0, #72]	; 0x48
2000b7f4:	e580104c 	str	r1, [r0, #76]	; 0x4c
2000b7f8:	e8bd8030 	pop	{r4, r5, pc}

2000b7fc <krnl_run_thread>:
2000b7fc:	e3a02001 	mov	r2, #1
2000b800:	e5903040 	ldr	r3, [r0, #64]	; 0x40
2000b804:	e5802010 	str	r2, [r0, #16]
2000b808:	e590104c 	ldr	r1, [r0, #76]	; 0x4c
2000b80c:	e5902044 	ldr	r2, [r0, #68]	; 0x44
2000b810:	e169f002 	msr	SPSR_fc, r2
2000b814:	e1a0d003 	mov	sp, r3
2000b818:	e1a0e001 	mov	lr, r1
2000b81c:	e8dd7fff 	ldm	sp, {r0, r1, r2, r3, r4, r5, r6, r7, r8, r9, sl, fp, ip, sp, lr}^
2000b820:	e28dd03c 	add	sp, sp, #60	; 0x3c
2000b824:	e1b0f00e 	movs	pc, lr
2000b828:	e12fff1e 	bx	lr

2000b82c <krnl_new_thread>:
2000b82c:	e92d4ff8 	push	{r3, r4, r5, r6, r7, r8, r9, sl, fp, lr}
2000b830:	e2507000 	subs	r7, r0, #0
2000b834:	e59d5028 	ldr	r5, [sp, #40]	; 0x28
2000b838:	0a000027 	beq	2000b8dc <krnl_new_thread+0xb0>
2000b83c:	e351003f 	cmp	r1, #63	; 0x3f
2000b840:	e1a09001 	mov	r9, r1
2000b844:	8a00001f 	bhi	2000b8c8 <krnl_new_thread+0x9c>
2000b848:	e3530901 	cmp	r3, #16384	; 0x4000
2000b84c:	83550901 	cmphi	r5, #16384	; 0x4000
2000b850:	e1a06003 	mov	r6, r3
2000b854:	e1a08002 	mov	r8, r2
2000b858:	83a05901 	movhi	r5, #16384	; 0x4000
2000b85c:	81a06005 	movhi	r6, r5
2000b860:	e3520001 	cmp	r2, #1
2000b864:	13a0a000 	movne	sl, #0
2000b868:	0a00001d 	beq	2000b8e4 <krnl_new_thread+0xb8>
2000b86c:	e1a00005 	mov	r0, r5
2000b870:	ebfffab9 	bl	2000a35c <krnl_alloc>
2000b874:	e250b000 	subs	fp, r0, #0
2000b878:	0a000017 	beq	2000b8dc <krnl_new_thread+0xb0>
2000b87c:	ebffff9d 	bl	2000b6f8 <krnl_new_thread_dscp>
2000b880:	e2504000 	subs	r4, r0, #0
2000b884:	0a000024 	beq	2000b91c <krnl_new_thread+0xf0>
2000b888:	e3580001 	cmp	r8, #1
2000b88c:	e245c001 	sub	ip, r5, #1
2000b890:	e08cc00b 	add	ip, ip, fp
2000b894:	e5849024 	str	r9, [r4, #36]	; 0x24
2000b898:	e584c02c 	str	ip, [r4, #44]	; 0x2c
2000b89c:	e584800c 	str	r8, [r4, #12]
2000b8a0:	e584b030 	str	fp, [r4, #48]	; 0x30
2000b8a4:	0a000013 	beq	2000b8f8 <krnl_new_thread+0xcc>
2000b8a8:	e1a01007 	mov	r1, r7
2000b8ac:	e3a020d3 	mov	r2, #211	; 0xd3
2000b8b0:	e3a03013 	mov	r3, #19
2000b8b4:	ebffffb2 	bl	2000b784 <krnl_new_thread_stack_init>
2000b8b8:	e1a00004 	mov	r0, r4
2000b8bc:	eb0000e2 	bl	2000bc4c <krnl_thdsched_tlb_add_thread>
2000b8c0:	e1a00004 	mov	r0, r4
2000b8c4:	e8bd8ff8 	pop	{r3, r4, r5, r6, r7, r8, r9, sl, fp, pc}
2000b8c8:	e30d05c4 	movw	r0, #54724	; 0xd5c4
2000b8cc:	e3a01000 	mov	r1, #0
2000b8d0:	e3420000 	movt	r0, #8192	; 0x2000
2000b8d4:	e3a02040 	mov	r2, #64	; 0x40
2000b8d8:	ebfff463 	bl	20008a6c <printk>
2000b8dc:	e3a00000 	mov	r0, #0
2000b8e0:	e8bd8ff8 	pop	{r3, r4, r5, r6, r7, r8, r9, sl, fp, pc}
2000b8e4:	e1a00006 	mov	r0, r6
2000b8e8:	ebfffa9b 	bl	2000a35c <krnl_alloc>
2000b8ec:	e250a000 	subs	sl, r0, #0
2000b8f0:	1affffdd 	bne	2000b86c <krnl_new_thread+0x40>
2000b8f4:	eafffff8 	b	2000b8dc <krnl_new_thread+0xb0>
2000b8f8:	e2466001 	sub	r6, r6, #1
2000b8fc:	e584a038 	str	sl, [r4, #56]	; 0x38
2000b900:	e086300a 	add	r3, r6, sl
2000b904:	e1a01007 	mov	r1, r7
2000b908:	e5843034 	str	r3, [r4, #52]	; 0x34
2000b90c:	e3a020d3 	mov	r2, #211	; 0xd3
2000b910:	e3a03010 	mov	r3, #16
2000b914:	ebffff9a 	bl	2000b784 <krnl_new_thread_stack_init>
2000b918:	eaffffe6 	b	2000b8b8 <krnl_new_thread+0x8c>
2000b91c:	e3580001 	cmp	r8, #1
2000b920:	0a000008 	beq	2000b948 <krnl_new_thread+0x11c>
2000b924:	e1a0000b 	mov	r0, fp
2000b928:	e1a01005 	mov	r1, r5
2000b92c:	ebfffa93 	bl	2000a380 <krnl_free>
2000b930:	e3500000 	cmp	r0, #0
2000b934:	1affffe8 	bne	2000b8dc <krnl_new_thread+0xb0>
2000b938:	e30d05e8 	movw	r0, #54760	; 0xd5e8
2000b93c:	e3420000 	movt	r0, #8192	; 0x2000
2000b940:	ebfff449 	bl	20008a6c <printk>
2000b944:	eafffffe 	b	2000b944 <krnl_new_thread+0x118>
2000b948:	e1a0000a 	mov	r0, sl
2000b94c:	e1a01006 	mov	r1, r6
2000b950:	ebfffa8a 	bl	2000a380 <krnl_free>
2000b954:	e3500000 	cmp	r0, #0
2000b958:	1afffff1 	bne	2000b924 <krnl_new_thread+0xf8>
2000b95c:	e30d05e8 	movw	r0, #54760	; 0xd5e8
2000b960:	e3420000 	movt	r0, #8192	; 0x2000
2000b964:	ebfff440 	bl	20008a6c <printk>
2000b968:	eafffffe 	b	2000b968 <krnl_new_thread+0x13c>

2000b96c <krnl_inc_thread_tick>:
2000b96c:	e92d4038 	push	{r3, r4, r5, lr}
2000b970:	e1a04000 	mov	r4, r0
2000b974:	ebfff4d7 	bl	20008cd8 <raw_local_fiqirq_disable>
2000b978:	e594301c 	ldr	r3, [r4, #28]
2000b97c:	e2833001 	add	r3, r3, #1
2000b980:	e3530014 	cmp	r3, #20
2000b984:	9584301c 	strls	r3, [r4, #28]
2000b988:	e1a05000 	mov	r5, r0
2000b98c:	9a000002 	bls	2000b99c <krnl_inc_thread_tick+0x30>
2000b990:	e3a03000 	mov	r3, #0
2000b994:	e584301c 	str	r3, [r4, #28]
2000b998:	eb0000cc 	bl	2000bcd0 <krnl_set_schedflag>
2000b99c:	e129f005 	msr	CPSR_fc, r5
2000b9a0:	e8bd8038 	pop	{r3, r4, r5, pc}

2000b9a4 <krnl_rtn_curtthread>:
2000b9a4:	e92d4008 	push	{r3, lr}
2000b9a8:	e30f3328 	movw	r3, #62248	; 0xf328
2000b9ac:	e3423000 	movt	r3, #8192	; 0x2000
2000b9b0:	e5930030 	ldr	r0, [r3, #48]	; 0x30
2000b9b4:	e3500000 	cmp	r0, #0
2000b9b8:	18bd8008 	popne	{r3, pc}
2000b9bc:	e30d0630 	movw	r0, #54832	; 0xd630
2000b9c0:	e3420000 	movt	r0, #8192	; 0x2000
2000b9c4:	ebfff428 	bl	20008a6c <printk>
2000b9c8:	eafffffe 	b	2000b9c8 <krnl_rtn_curtthread+0x24>

2000b9cc <krnl_deal_new_thread>:
2000b9cc:	e5901010 	ldr	r1, [r0, #16]
2000b9d0:	e30f3328 	movw	r3, #62248	; 0xf328
2000b9d4:	e3423000 	movt	r3, #8192	; 0x2000
2000b9d8:	e3510000 	cmp	r1, #0
2000b9dc:	e5830030 	str	r0, [r3, #48]	; 0x30
2000b9e0:	112fff1e 	bxne	lr
2000b9e4:	eaffff84 	b	2000b7fc <krnl_run_thread>

2000b9e8 <krnl_save_contex_to_sched>:
2000b9e8:	e92d4070 	push	{r4, r5, r6, lr}
2000b9ec:	e1a04000 	mov	r4, r0
2000b9f0:	e1a05001 	mov	r5, r1
2000b9f4:	ebfff4b7 	bl	20008cd8 <raw_local_fiqirq_disable>
2000b9f8:	e92d5fff 	push	{r0, r1, r2, r3, r4, r5, r6, r7, r8, r9, sl, fp, ip, lr}
2000b9fc:	e2843040 	add	r3, r4, #64	; 0x40
2000ba00:	e2842044 	add	r2, r4, #68	; 0x44
2000ba04:	e2851040 	add	r1, r5, #64	; 0x40
2000ba08:	e2844048 	add	r4, r4, #72	; 0x48
2000ba0c:	e595c044 	ldr	ip, [r5, #68]	; 0x44
2000ba10:	e595e048 	ldr	lr, [r5, #72]	; 0x48
2000ba14:	e14f6000 	mrs	r6, SPSR
2000ba18:	e5826000 	str	r6, [r2]
2000ba1c:	e10f6000 	mrs	r6, CPSR
2000ba20:	e5846000 	str	r6, [r4]
2000ba24:	e583d000 	str	sp, [r3]
2000ba28:	e169f00c 	msr	SPSR_fc, ip
2000ba2c:	e129f00e 	msr	CPSR_fc, lr
2000ba30:	e591d000 	ldr	sp, [r1]
2000ba34:	e1a00005 	mov	r0, r5
2000ba38:	ebffffe3 	bl	2000b9cc <krnl_deal_new_thread>
2000ba3c:	e8bd5fff 	pop	{r0, r1, r2, r3, r4, r5, r6, r7, r8, r9, sl, fp, ip, lr}
2000ba40:	e129f000 	msr	CPSR_fc, r0
2000ba44:	e8bd8070 	pop	{r4, r5, r6, pc}

2000ba48 <krnl_thread_sched>:
2000ba48:	e92d40f8 	push	{r3, r4, r5, r6, r7, lr}
2000ba4c:	e30f4328 	movw	r4, #62248	; 0xf328
2000ba50:	ebfff4a0 	bl	20008cd8 <raw_local_fiqirq_disable>
2000ba54:	e3424000 	movt	r4, #8192	; 0x2000
2000ba58:	e5946030 	ldr	r6, [r4, #48]	; 0x30
2000ba5c:	e3560000 	cmp	r6, #0
2000ba60:	0a000038 	beq	2000bb48 <krnl_thread_sched+0x100>
2000ba64:	e129f000 	msr	CPSR_fc, r0
2000ba68:	ebfff49a 	bl	20008cd8 <raw_local_fiqirq_disable>
2000ba6c:	e1a05000 	mov	r5, r0
2000ba70:	e2840024 	add	r0, r4, #36	; 0x24
2000ba74:	eb000160 	bl	2000bffc <bitmap_get_first_set>
2000ba78:	e1a07000 	mov	r7, r0
2000ba7c:	eb000146 	bl	2000bf9c <bitmap_bit_count>
2000ba80:	e1570000 	cmp	r7, r0
2000ba84:	0a000026 	beq	2000bb24 <krnl_thread_sched+0xdc>
2000ba88:	e1a0e087 	lsl	lr, r7, #1
2000ba8c:	e08e3007 	add	r3, lr, r7
2000ba90:	e1a03103 	lsl	r3, r3, #2
2000ba94:	e0841003 	add	r1, r4, r3
2000ba98:	e591203c 	ldr	r2, [r1, #60]	; 0x3c
2000ba9c:	e3520000 	cmp	r2, #0
2000baa0:	0a000018 	beq	2000bb08 <krnl_thread_sched+0xc0>
2000baa4:	e5912034 	ldr	r2, [r1, #52]	; 0x34
2000baa8:	e0843003 	add	r3, r4, r3
2000baac:	e283c034 	add	ip, r3, #52	; 0x34
2000bab0:	e2811028 	add	r1, r1, #40	; 0x28
2000bab4:	e15c0002 	cmp	ip, r2
2000bab8:	0a000026 	beq	2000bb58 <krnl_thread_sched+0x110>
2000babc:	e08e3007 	add	r3, lr, r7
2000bac0:	e5920004 	ldr	r0, [r2, #4]
2000bac4:	e592e000 	ldr	lr, [r2]
2000bac8:	e2421004 	sub	r1, r2, #4
2000bacc:	e0843103 	add	r3, r4, r3, lsl #2
2000bad0:	e58e0004 	str	r0, [lr, #4]
2000bad4:	e580e000 	str	lr, [r0]
2000bad8:	e5822004 	str	r2, [r2, #4]
2000badc:	e5930038 	ldr	r0, [r3, #56]	; 0x38
2000bae0:	e5832038 	str	r2, [r3, #56]	; 0x38
2000bae4:	e582c000 	str	ip, [r2]
2000bae8:	e5820004 	str	r0, [r2, #4]
2000baec:	e5802000 	str	r2, [r0]
2000baf0:	e129f005 	msr	CPSR_fc, r5
2000baf4:	e1560001 	cmp	r6, r1
2000baf8:	08bd80f8 	popeq	{r3, r4, r5, r6, r7, pc}
2000bafc:	e1a00006 	mov	r0, r6
2000bb00:	e8bd40f8 	pop	{r3, r4, r5, r6, r7, lr}
2000bb04:	eaffffb7 	b	2000b9e8 <krnl_save_contex_to_sched>
2000bb08:	e30d0668 	movw	r0, #54888	; 0xd668
2000bb0c:	e30d2688 	movw	r2, #54920	; 0xd688
2000bb10:	e3420000 	movt	r0, #8192	; 0x2000
2000bb14:	e3422000 	movt	r2, #8192	; 0x2000
2000bb18:	e3a01074 	mov	r1, #116	; 0x74
2000bb1c:	ebfff3d2 	bl	20008a6c <printk>
2000bb20:	eafffffe 	b	2000bb20 <krnl_thread_sched+0xd8>
2000bb24:	ebfff46b 	bl	20008cd8 <raw_local_fiqirq_disable>
2000bb28:	e594102c 	ldr	r1, [r4, #44]	; 0x2c
2000bb2c:	e129f000 	msr	CPSR_fc, r0
2000bb30:	e3510000 	cmp	r1, #0
2000bb34:	1affffed 	bne	2000baf0 <krnl_thread_sched+0xa8>
2000bb38:	e30d064c 	movw	r0, #54860	; 0xd64c
2000bb3c:	e3420000 	movt	r0, #8192	; 0x2000
2000bb40:	ebfff3c9 	bl	20008a6c <printk>
2000bb44:	eafffffe 	b	2000bb44 <krnl_thread_sched+0xfc>
2000bb48:	e30d064c 	movw	r0, #54860	; 0xd64c
2000bb4c:	e3420000 	movt	r0, #8192	; 0x2000
2000bb50:	ebfff3c5 	bl	20008a6c <printk>
2000bb54:	eafffffe 	b	2000bb54 <krnl_thread_sched+0x10c>
2000bb58:	e5913010 	ldr	r3, [r1, #16]
2000bb5c:	e15c0003 	cmp	ip, r3
2000bb60:	1affffd5 	bne	2000babc <krnl_thread_sched+0x74>
2000bb64:	e30d0668 	movw	r0, #54888	; 0xd668
2000bb68:	e30d2688 	movw	r2, #54920	; 0xd688
2000bb6c:	e3420000 	movt	r0, #8192	; 0x2000
2000bb70:	e3422000 	movt	r2, #8192	; 0x2000
2000bb74:	e3a01077 	mov	r1, #119	; 0x77
2000bb78:	ebfff3bb 	bl	20008a6c <printk>
2000bb7c:	eafffffe 	b	2000bb7c <krnl_thread_sched+0x134>

2000bb80 <krnl_try_sched>:
2000bb80:	e92d4008 	push	{r3, lr}
2000bb84:	ebfff453 	bl	20008cd8 <raw_local_fiqirq_disable>
2000bb88:	e30f3328 	movw	r3, #62248	; 0xf328
2000bb8c:	e3423000 	movt	r3, #8192	; 0x2000
2000bb90:	e5932014 	ldr	r2, [r3, #20]
2000bb94:	e3520001 	cmp	r2, #1
2000bb98:	0a000005 	beq	2000bbb4 <krnl_try_sched+0x34>
2000bb9c:	e3a02000 	mov	r2, #0
2000bba0:	e129f000 	msr	CPSR_fc, r0
2000bba4:	e3520001 	cmp	r2, #1
2000bba8:	18bd8008 	popne	{r3, pc}
2000bbac:	e8bd4008 	pop	{r3, lr}
2000bbb0:	eaffffa4 	b	2000ba48 <krnl_thread_sched>
2000bbb4:	e5932018 	ldr	r2, [r3, #24]
2000bbb8:	e3520001 	cmp	r2, #1
2000bbbc:	03a01000 	moveq	r1, #0
2000bbc0:	05831014 	streq	r1, [r3, #20]
2000bbc4:	1afffff4 	bne	2000bb9c <krnl_try_sched+0x1c>
2000bbc8:	eafffff4 	b	2000bba0 <krnl_try_sched+0x20>

2000bbcc <krnl_sched_init>:
2000bbcc:	e92d4038 	push	{r3, r4, r5, lr}
2000bbd0:	e30f4328 	movw	r4, #62248	; 0xf328
2000bbd4:	e3a05000 	mov	r5, #0
2000bbd8:	e3424000 	movt	r4, #8192	; 0x2000
2000bbdc:	e5845000 	str	r5, [r4]
2000bbe0:	e3a03001 	mov	r3, #1
2000bbe4:	e284200c 	add	r2, r4, #12
2000bbe8:	e9840028 	stmib	r4, {r3, r5}
2000bbec:	e5825000 	str	r5, [r2]
2000bbf0:	e2840024 	add	r0, r4, #36	; 0x24
2000bbf4:	e5843018 	str	r3, [r4, #24]
2000bbf8:	e5845010 	str	r5, [r4, #16]
2000bbfc:	e5845014 	str	r5, [r4, #20]
2000bc00:	e584501c 	str	r5, [r4, #28]
2000bc04:	e5845020 	str	r5, [r4, #32]
2000bc08:	eb0000df 	bl	2000bf8c <bitmap_init>
2000bc0c:	e2843040 	add	r3, r4, #64	; 0x40
2000bc10:	e2841fcd 	add	r1, r4, #820	; 0x334
2000bc14:	e1a02005 	mov	r2, r5
2000bc18:	e2840034 	add	r0, r4, #52	; 0x34
2000bc1c:	e584502c 	str	r5, [r4, #44]	; 0x2c
2000bc20:	e5845030 	str	r5, [r4, #48]	; 0x30
2000bc24:	e584503c 	str	r5, [r4, #60]	; 0x3c
2000bc28:	e5840034 	str	r0, [r4, #52]	; 0x34
2000bc2c:	e5840038 	str	r0, [r4, #56]	; 0x38
2000bc30:	e5832008 	str	r2, [r3, #8]
2000bc34:	e5833000 	str	r3, [r3]
2000bc38:	e5833004 	str	r3, [r3, #4]
2000bc3c:	e283300c 	add	r3, r3, #12
2000bc40:	e1530001 	cmp	r3, r1
2000bc44:	1afffff9 	bne	2000bc30 <krnl_sched_init+0x64>
2000bc48:	e8bd8038 	pop	{r3, r4, r5, pc}

2000bc4c <krnl_thdsched_tlb_add_thread>:
2000bc4c:	e92d43f8 	push	{r3, r4, r5, r6, r7, r8, r9, lr}
2000bc50:	e1a05000 	mov	r5, r0
2000bc54:	ebfff41f 	bl	20008cd8 <raw_local_fiqirq_disable>
2000bc58:	e5951024 	ldr	r1, [r5, #36]	; 0x24
2000bc5c:	e30f4328 	movw	r4, #62248	; 0xf328
2000bc60:	e3424000 	movt	r4, #8192	; 0x2000
2000bc64:	e2857004 	add	r7, r5, #4
2000bc68:	e594e01c 	ldr	lr, [r4, #28]
2000bc6c:	e0813081 	add	r3, r1, r1, lsl #1
2000bc70:	e28ee001 	add	lr, lr, #1
2000bc74:	e1a03103 	lsl	r3, r3, #2
2000bc78:	e0842003 	add	r2, r4, r3
2000bc7c:	e2823034 	add	r3, r2, #52	; 0x34
2000bc80:	e2828028 	add	r8, r2, #40	; 0x28
2000bc84:	e5929034 	ldr	r9, [r2, #52]	; 0x34
2000bc88:	e592c03c 	ldr	ip, [r2, #60]	; 0x3c
2000bc8c:	e5897004 	str	r7, [r9, #4]
2000bc90:	e28cc001 	add	ip, ip, #1
2000bc94:	e5853008 	str	r3, [r5, #8]
2000bc98:	e5859004 	str	r9, [r5, #4]
2000bc9c:	e5827034 	str	r7, [r2, #52]	; 0x34
2000bca0:	e582c03c 	str	ip, [r2, #60]	; 0x3c
2000bca4:	e584e01c 	str	lr, [r4, #28]
2000bca8:	e1a06000 	mov	r6, r0
2000bcac:	e2840024 	add	r0, r4, #36	; 0x24
2000bcb0:	eb0000bb 	bl	2000bfa4 <bitmap_set_bit>
2000bcb4:	e129f006 	msr	CPSR_fc, r6
2000bcb8:	ebfff406 	bl	20008cd8 <raw_local_fiqirq_disable>
2000bcbc:	e5943008 	ldr	r3, [r4, #8]
2000bcc0:	e2833001 	add	r3, r3, #1
2000bcc4:	e5843008 	str	r3, [r4, #8]
2000bcc8:	e129f000 	msr	CPSR_fc, r0
2000bccc:	e8bd83f8 	pop	{r3, r4, r5, r6, r7, r8, r9, pc}

2000bcd0 <krnl_set_schedflag>:
2000bcd0:	e92d4008 	push	{r3, lr}
2000bcd4:	ebfff3ff 	bl	20008cd8 <raw_local_fiqirq_disable>
2000bcd8:	e30f3328 	movw	r3, #62248	; 0xf328
2000bcdc:	e3423000 	movt	r3, #8192	; 0x2000
2000bce0:	e3a02001 	mov	r2, #1
2000bce4:	e5832014 	str	r2, [r3, #20]
2000bce8:	e129f000 	msr	CPSR_fc, r0
2000bcec:	e8bd8008 	pop	{r3, pc}

2000bcf0 <krnl_sched_wait>:
2000bcf0:	e92d41f0 	push	{r4, r5, r6, r7, r8, lr}
2000bcf4:	e1a05000 	mov	r5, r0
2000bcf8:	e1a08001 	mov	r8, r1
2000bcfc:	ebffff28 	bl	2000b9a4 <krnl_rtn_curtthread>
2000bd00:	e3550000 	cmp	r5, #0
2000bd04:	0a00002a 	beq	2000bdb4 <krnl_sched_wait+0xc4>
2000bd08:	e5903020 	ldr	r3, [r0, #32]
2000bd0c:	e1a04000 	mov	r4, r0
2000bd10:	e3530000 	cmp	r3, #0
2000bd14:	18bd81f0 	popne	{r4, r5, r6, r7, r8, pc}
2000bd18:	ebfff3ee 	bl	20008cd8 <raw_local_fiqirq_disable>
2000bd1c:	e2846004 	add	r6, r4, #4
2000bd20:	e1a07000 	mov	r7, r0
2000bd24:	ebfff3eb 	bl	20008cd8 <raw_local_fiqirq_disable>
2000bd28:	e994000c 	ldmib	r4, {r2, r3}
2000bd2c:	e3a0c003 	mov	ip, #3
2000bd30:	e5941024 	ldr	r1, [r4, #36]	; 0x24
2000bd34:	e5823004 	str	r3, [r2, #4]
2000bd38:	e5832000 	str	r2, [r3]
2000bd3c:	e5848020 	str	r8, [r4, #32]
2000bd40:	e5846004 	str	r6, [r4, #4]
2000bd44:	e5846008 	str	r6, [r4, #8]
2000bd48:	e584c010 	str	ip, [r4, #16]
2000bd4c:	e129f000 	msr	CPSR_fc, r0
2000bd50:	e0813081 	add	r3, r1, r1, lsl #1
2000bd54:	e30f0328 	movw	r0, #62248	; 0xf328
2000bd58:	e3420000 	movt	r0, #8192	; 0x2000
2000bd5c:	e0803103 	add	r3, r0, r3, lsl #2
2000bd60:	e593203c 	ldr	r2, [r3, #60]	; 0x3c
2000bd64:	e2422001 	sub	r2, r2, #1
2000bd68:	e583203c 	str	r2, [r3, #60]	; 0x3c
2000bd6c:	e3520000 	cmp	r2, #0
2000bd70:	0a00000c 	beq	2000bda8 <krnl_sched_wait+0xb8>
2000bd74:	ebfff3d7 	bl	20008cd8 <raw_local_fiqirq_disable>
2000bd78:	e595200c 	ldr	r2, [r5, #12]
2000bd7c:	e5953004 	ldr	r3, [r5, #4]
2000bd80:	e2851008 	add	r1, r5, #8
2000bd84:	e585600c 	str	r6, [r5, #12]
2000bd88:	e2833001 	add	r3, r3, #1
2000bd8c:	e9840006 	stmib	r4, {r1, r2}
2000bd90:	e5826000 	str	r6, [r2]
2000bd94:	e5853004 	str	r3, [r5, #4]
2000bd98:	e129f000 	msr	CPSR_fc, r0
2000bd9c:	e129f007 	msr	CPSR_fc, r7
2000bda0:	e8bd41f0 	pop	{r4, r5, r6, r7, r8, lr}
2000bda4:	eaffff27 	b	2000ba48 <krnl_thread_sched>
2000bda8:	e2800024 	add	r0, r0, #36	; 0x24
2000bdac:	eb000087 	bl	2000bfd0 <bitmap_clear_bit>
2000bdb0:	eaffffef 	b	2000bd74 <krnl_sched_wait+0x84>
2000bdb4:	e30d069c 	movw	r0, #54940	; 0xd69c
2000bdb8:	e3420000 	movt	r0, #8192	; 0x2000
2000bdbc:	e8bd41f0 	pop	{r4, r5, r6, r7, r8, lr}
2000bdc0:	eafff329 	b	20008a6c <printk>

2000bdc4 <krnl_sched_up>:
2000bdc4:	e3500000 	cmp	r0, #0
2000bdc8:	0a000037 	beq	2000beac <krnl_sched_up+0xe8>
2000bdcc:	e92d41f0 	push	{r4, r5, r6, r7, r8, lr}
2000bdd0:	e1a06000 	mov	r6, r0
2000bdd4:	ebfff3bf 	bl	20008cd8 <raw_local_fiqirq_disable>
2000bdd8:	e1a05000 	mov	r5, r0
2000bddc:	ebfff3bd 	bl	20008cd8 <raw_local_fiqirq_disable>
2000bde0:	e596e004 	ldr	lr, [r6, #4]
2000bde4:	e35e0000 	cmp	lr, #0
2000bde8:	08bd81f0 	popeq	{r4, r5, r6, r7, r8, pc}
2000bdec:	e1a01006 	mov	r1, r6
2000bdf0:	e5b13008 	ldr	r3, [r1, #8]!
2000bdf4:	e1530001 	cmp	r3, r1
2000bdf8:	e2434004 	sub	r4, r3, #4
2000bdfc:	e593c020 	ldr	ip, [r3, #32]
2000be00:	0a000007 	beq	2000be24 <krnl_sched_up+0x60>
2000be04:	e1a0200c 	mov	r2, ip
2000be08:	ea000000 	b	2000be10 <krnl_sched_up+0x4c>
2000be0c:	e5942024 	ldr	r2, [r4, #36]	; 0x24
2000be10:	e152000c 	cmp	r2, ip
2000be14:	92434004 	subls	r4, r3, #4
2000be18:	e5933000 	ldr	r3, [r3]
2000be1c:	e1530001 	cmp	r3, r1
2000be20:	1afffff9 	bne	2000be0c <krnl_sched_up+0x48>
2000be24:	e5943008 	ldr	r3, [r4, #8]
2000be28:	e2847004 	add	r7, r4, #4
2000be2c:	e5942004 	ldr	r2, [r4, #4]
2000be30:	e24ee001 	sub	lr, lr, #1
2000be34:	e5823004 	str	r3, [r2, #4]
2000be38:	e5832000 	str	r2, [r3]
2000be3c:	e5847004 	str	r7, [r4, #4]
2000be40:	e5847008 	str	r7, [r4, #8]
2000be44:	e586e004 	str	lr, [r6, #4]
2000be48:	e129f000 	msr	CPSR_fc, r0
2000be4c:	ebfff3a1 	bl	20008cd8 <raw_local_fiqirq_disable>
2000be50:	e5941024 	ldr	r1, [r4, #36]	; 0x24
2000be54:	e30f2328 	movw	r2, #62248	; 0xf328
2000be58:	e3a08004 	mov	r8, #4
2000be5c:	e3422000 	movt	r2, #8192	; 0x2000
2000be60:	e0813081 	add	r3, r1, r1, lsl #1
2000be64:	e1a03103 	lsl	r3, r3, #2
2000be68:	e0826003 	add	r6, r2, r3
2000be6c:	e2863034 	add	r3, r6, #52	; 0x34
2000be70:	e596e034 	ldr	lr, [r6, #52]	; 0x34
2000be74:	e58e7004 	str	r7, [lr, #4]
2000be78:	e5843008 	str	r3, [r4, #8]
2000be7c:	e584e004 	str	lr, [r4, #4]
2000be80:	e5867034 	str	r7, [r6, #52]	; 0x34
2000be84:	e5848010 	str	r8, [r4, #16]
2000be88:	e129f000 	msr	CPSR_fc, r0
2000be8c:	e2820024 	add	r0, r2, #36	; 0x24
2000be90:	e2866030 	add	r6, r6, #48	; 0x30
2000be94:	eb000042 	bl	2000bfa4 <bitmap_set_bit>
2000be98:	e596300c 	ldr	r3, [r6, #12]
2000be9c:	e2833001 	add	r3, r3, #1
2000bea0:	e586300c 	str	r3, [r6, #12]
2000bea4:	e129f005 	msr	CPSR_fc, r5
2000bea8:	e8bd81f0 	pop	{r4, r5, r6, r7, r8, pc}
2000beac:	e30d069c 	movw	r0, #54940	; 0xd69c
2000beb0:	e3420000 	movt	r0, #8192	; 0x2000
2000beb4:	eafff2ec 	b	20008a6c <printk>

2000beb8 <cpuidle_thread>:
2000beb8:	eafffffe 	b	2000beb8 <cpuidle_thread>

2000bebc <krnl_cpuidle_init>:
2000bebc:	e92d4070 	push	{r4, r5, r6, lr}
2000bec0:	e24dd008 	sub	sp, sp, #8
2000bec4:	e30b0eb8 	movw	r0, #48824	; 0xbeb8
2000bec8:	e3a03901 	mov	r3, #16384	; 0x4000
2000becc:	e3420000 	movt	r0, #8192	; 0x2000
2000bed0:	e58d3000 	str	r3, [sp]
2000bed4:	e3a0103f 	mov	r1, #63	; 0x3f
2000bed8:	e3a02000 	mov	r2, #0
2000bedc:	ebfffe52 	bl	2000b82c <krnl_new_thread>
2000bee0:	e2504000 	subs	r4, r0, #0
2000bee4:	0a00001c 	beq	2000bf5c <krnl_cpuidle_init+0xa0>
2000bee8:	ebfff37a 	bl	20008cd8 <raw_local_fiqirq_disable>
2000beec:	e5941024 	ldr	r1, [r4, #36]	; 0x24
2000bef0:	e30f5328 	movw	r5, #62248	; 0xf328
2000bef4:	e284c004 	add	ip, r4, #4
2000bef8:	e3425000 	movt	r5, #8192	; 0x2000
2000befc:	e1a03081 	lsl	r3, r1, #1
2000bf00:	e585402c 	str	r4, [r5, #44]	; 0x2c
2000bf04:	e0832001 	add	r2, r3, r1
2000bf08:	e5854030 	str	r4, [r5, #48]	; 0x30
2000bf0c:	e594e004 	ldr	lr, [r4, #4]
2000bf10:	e0852102 	add	r2, r5, r2, lsl #2
2000bf14:	e592203c 	ldr	r2, [r2, #60]	; 0x3c
2000bf18:	e3520001 	cmp	r2, #1
2000bf1c:	e1a06000 	mov	r6, r0
2000bf20:	e5940008 	ldr	r0, [r4, #8]
2000bf24:	e58e0004 	str	r0, [lr, #4]
2000bf28:	e580e000 	str	lr, [r0]
2000bf2c:	e584c004 	str	ip, [r4, #4]
2000bf30:	e584c008 	str	ip, [r4, #8]
2000bf34:	0a00000c 	beq	2000bf6c <krnl_cpuidle_init+0xb0>
2000bf38:	e0833001 	add	r3, r3, r1
2000bf3c:	e2422001 	sub	r2, r2, #1
2000bf40:	e0855103 	add	r5, r5, r3, lsl #2
2000bf44:	e585203c 	str	r2, [r5, #60]	; 0x3c
2000bf48:	e129f006 	msr	CPSR_fc, r6
2000bf4c:	e1a00004 	mov	r0, r4
2000bf50:	e28dd008 	add	sp, sp, #8
2000bf54:	e8bd4070 	pop	{r4, r5, r6, lr}
2000bf58:	eafffe27 	b	2000b7fc <krnl_run_thread>
2000bf5c:	e30d06b4 	movw	r0, #54964	; 0xd6b4
2000bf60:	e3420000 	movt	r0, #8192	; 0x2000
2000bf64:	ebfff2c0 	bl	20008a6c <printk>
2000bf68:	eafffffe 	b	2000bf68 <krnl_cpuidle_init+0xac>
2000bf6c:	e2850024 	add	r0, r5, #36	; 0x24
2000bf70:	eb000016 	bl	2000bfd0 <bitmap_clear_bit>
2000bf74:	e5941024 	ldr	r1, [r4, #36]	; 0x24
2000bf78:	e1a03081 	lsl	r3, r1, #1
2000bf7c:	e0832001 	add	r2, r3, r1
2000bf80:	e0852102 	add	r2, r5, r2, lsl #2
2000bf84:	e592203c 	ldr	r2, [r2, #60]	; 0x3c
2000bf88:	eaffffea 	b	2000bf38 <krnl_cpuidle_init+0x7c>

2000bf8c <bitmap_init>:
2000bf8c:	e3a03000 	mov	r3, #0
2000bf90:	e5803000 	str	r3, [r0]
2000bf94:	e5803004 	str	r3, [r0, #4]
2000bf98:	e12fff1e 	bx	lr

2000bf9c <bitmap_bit_count>:
2000bf9c:	e3a00040 	mov	r0, #64	; 0x40
2000bfa0:	e12fff1e 	bx	lr

2000bfa4 <bitmap_set_bit>:
2000bfa4:	e351001f 	cmp	r1, #31
2000bfa8:	82411020 	subhi	r1, r1, #32
2000bfac:	85903004 	ldrhi	r3, [r0, #4]
2000bfb0:	83a02001 	movhi	r2, #1
2000bfb4:	95903000 	ldrls	r3, [r0]
2000bfb8:	93a02001 	movls	r2, #1
2000bfbc:	81831112 	orrhi	r1, r3, r2, lsl r1
2000bfc0:	85801004 	strhi	r1, [r0, #4]
2000bfc4:	91831112 	orrls	r1, r3, r2, lsl r1
2000bfc8:	95801000 	strls	r1, [r0]
2000bfcc:	e12fff1e 	bx	lr

2000bfd0 <bitmap_clear_bit>:
2000bfd0:	e351001f 	cmp	r1, #31
2000bfd4:	82411020 	subhi	r1, r1, #32
2000bfd8:	85903004 	ldrhi	r3, [r0, #4]
2000bfdc:	83a02001 	movhi	r2, #1
2000bfe0:	95903000 	ldrls	r3, [r0]
2000bfe4:	93a02001 	movls	r2, #1
2000bfe8:	81c31112 	bichi	r1, r3, r2, lsl r1
2000bfec:	85801004 	strhi	r1, [r0, #4]
2000bff0:	91c31112 	bicls	r1, r3, r2, lsl r1
2000bff4:	95801000 	strls	r1, [r0]
2000bff8:	e12fff1e 	bx	lr

2000bffc <bitmap_get_first_set>:
2000bffc:	e5903000 	ldr	r3, [r0]
2000c000:	e5902004 	ldr	r2, [r0, #4]
2000c004:	e3530000 	cmp	r3, #0
2000c008:	0a000009 	beq	2000c034 <bitmap_get_first_set+0x38>
2000c00c:	e21320ff 	ands	r2, r3, #255	; 0xff
2000c010:	1a000016 	bne	2000c070 <bitmap_get_first_set+0x74>
2000c014:	e3130cff 	tst	r3, #65280	; 0xff00
2000c018:	1a000018 	bne	2000c080 <bitmap_get_first_set+0x84>
2000c01c:	e31308ff 	tst	r3, #16711680	; 0xff0000
2000c020:	1a00001c 	bne	2000c098 <bitmap_get_first_set+0x9c>
2000c024:	e31304ff 	tst	r3, #-16777216	; 0xff000000
2000c028:	1a000025 	bne	2000c0c4 <bitmap_get_first_set+0xc8>
2000c02c:	e3a00040 	mov	r0, #64	; 0x40
2000c030:	e12fff1e 	bx	lr
2000c034:	e3520000 	cmp	r2, #0
2000c038:	0afffffb 	beq	2000c02c <bitmap_get_first_set+0x30>
2000c03c:	e21210ff 	ands	r1, r2, #255	; 0xff
2000c040:	1a00001a 	bne	2000c0b0 <bitmap_get_first_set+0xb4>
2000c044:	e3120cff 	tst	r2, #65280	; 0xff00
2000c048:	1a000028 	bne	2000c0f0 <bitmap_get_first_set+0xf4>
2000c04c:	e31208ff 	tst	r2, #16711680	; 0xff0000
2000c050:	1a000020 	bne	2000c0d8 <bitmap_get_first_set+0xdc>
2000c054:	e31204ff 	tst	r2, #-16777216	; 0xff000000
2000c058:	0afffff3 	beq	2000c02c <bitmap_get_first_set+0x30>
2000c05c:	e30f3ae0 	movw	r3, #64224	; 0xfae0
2000c060:	e3423000 	movt	r3, #8192	; 0x2000
2000c064:	e7d30c22 	ldrb	r0, [r3, r2, lsr #24]
2000c068:	e2800038 	add	r0, r0, #56	; 0x38
2000c06c:	e12fff1e 	bx	lr
2000c070:	e30f3ae0 	movw	r3, #64224	; 0xfae0
2000c074:	e3423000 	movt	r3, #8192	; 0x2000
2000c078:	e7d30002 	ldrb	r0, [r3, r2]
2000c07c:	e12fff1e 	bx	lr
2000c080:	e7e73453 	ubfx	r3, r3, #8, #8
2000c084:	e30f2ae0 	movw	r2, #64224	; 0xfae0
2000c088:	e3422000 	movt	r2, #8192	; 0x2000
2000c08c:	e7d20003 	ldrb	r0, [r2, r3]
2000c090:	e2800008 	add	r0, r0, #8
2000c094:	e12fff1e 	bx	lr
2000c098:	e7e73853 	ubfx	r3, r3, #16, #8
2000c09c:	e30f2ae0 	movw	r2, #64224	; 0xfae0
2000c0a0:	e3422000 	movt	r2, #8192	; 0x2000
2000c0a4:	e7d20003 	ldrb	r0, [r2, r3]
2000c0a8:	e2800010 	add	r0, r0, #16
2000c0ac:	e12fff1e 	bx	lr
2000c0b0:	e30f3ae0 	movw	r3, #64224	; 0xfae0
2000c0b4:	e3423000 	movt	r3, #8192	; 0x2000
2000c0b8:	e7d30001 	ldrb	r0, [r3, r1]
2000c0bc:	e2800020 	add	r0, r0, #32
2000c0c0:	e12fff1e 	bx	lr
2000c0c4:	e30f2ae0 	movw	r2, #64224	; 0xfae0
2000c0c8:	e3422000 	movt	r2, #8192	; 0x2000
2000c0cc:	e7d20c23 	ldrb	r0, [r2, r3, lsr #24]
2000c0d0:	e2800018 	add	r0, r0, #24
2000c0d4:	e12fff1e 	bx	lr
2000c0d8:	e7e72852 	ubfx	r2, r2, #16, #8
2000c0dc:	e30f3ae0 	movw	r3, #64224	; 0xfae0
2000c0e0:	e3423000 	movt	r3, #8192	; 0x2000
2000c0e4:	e7d30002 	ldrb	r0, [r3, r2]
2000c0e8:	e2800030 	add	r0, r0, #48	; 0x30
2000c0ec:	e12fff1e 	bx	lr
2000c0f0:	e7e72452 	ubfx	r2, r2, #8, #8
2000c0f4:	e30f3ae0 	movw	r3, #64224	; 0xfae0
2000c0f8:	e3423000 	movt	r3, #8192	; 0x2000
2000c0fc:	e7d30002 	ldrb	r0, [r3, r2]
2000c100:	e2800028 	add	r0, r0, #40	; 0x28
2000c104:	e12fff1e 	bx	lr

2000c108 <task2_func>:
2000c108:	e52de004 	push	{lr}		; (str lr, [sp, #-4]!)
2000c10c:	e30d06c8 	movw	r0, #54984	; 0xd6c8
2000c110:	e24dd00c 	sub	sp, sp, #12
2000c114:	e3420000 	movt	r0, #8192	; 0x2000
2000c118:	e30836a0 	movw	r3, #34464	; 0x86a0
2000c11c:	e3403001 	movt	r3, #1
2000c120:	e58d3004 	str	r3, [sp, #4]
2000c124:	ebfff250 	bl	20008a6c <printk>
2000c128:	e30f3be0 	movw	r3, #64480	; 0xfbe0
2000c12c:	e30d0710 	movw	r0, #55056	; 0xd710
2000c130:	e3423000 	movt	r3, #8192	; 0x2000
2000c134:	e3420000 	movt	r0, #8192	; 0x2000
2000c138:	e3a02000 	mov	r2, #0
2000c13c:	e5832000 	str	r2, [r3]
2000c140:	ebfff249 	bl	20008a6c <printk>
2000c144:	e30d0728 	movw	r0, #55080	; 0xd728
2000c148:	e3420000 	movt	r0, #8192	; 0x2000
2000c14c:	ebfff246 	bl	20008a6c <printk>
2000c150:	e30d0740 	movw	r0, #55104	; 0xd740
2000c154:	e59d1004 	ldr	r1, [sp, #4]
2000c158:	e3420000 	movt	r0, #8192	; 0x2000
2000c15c:	ebfff242 	bl	20008a6c <printk>
2000c160:	e59d3004 	ldr	r3, [sp, #4]
2000c164:	e30d0754 	movw	r0, #55124	; 0xd754
2000c168:	e2833b61 	add	r3, r3, #99328	; 0x18400
2000c16c:	e3420000 	movt	r0, #8192	; 0x2000
2000c170:	e2833e2a 	add	r3, r3, #672	; 0x2a0
2000c174:	e58d3004 	str	r3, [sp, #4]
2000c178:	e59d1004 	ldr	r1, [sp, #4]
2000c17c:	ebfff23a 	bl	20008a6c <printk>
2000c180:	e59d3004 	ldr	r3, [sp, #4]
2000c184:	e2833b61 	add	r3, r3, #99328	; 0x18400
2000c188:	e2833e2a 	add	r3, r3, #672	; 0x2a0
2000c18c:	e58d3004 	str	r3, [sp, #4]
2000c190:	eaffffee 	b	2000c150 <task2_func+0x48>

2000c194 <task3_func>:
2000c194:	e92d4008 	push	{r3, lr}
2000c198:	e30d0768 	movw	r0, #55144	; 0xd768
2000c19c:	e3420000 	movt	r0, #8192	; 0x2000
2000c1a0:	ebfff231 	bl	20008a6c <printk>
2000c1a4:	e30d07a0 	movw	r0, #55200	; 0xd7a0
2000c1a8:	e3420000 	movt	r0, #8192	; 0x2000
2000c1ac:	ebfff22e 	bl	20008a6c <printk>
2000c1b0:	e30d07cc 	movw	r0, #55244	; 0xd7cc
2000c1b4:	e3420000 	movt	r0, #8192	; 0x2000
2000c1b8:	ebfff22b 	bl	20008a6c <printk>
2000c1bc:	e30d0818 	movw	r0, #55320	; 0xd818
2000c1c0:	e3420000 	movt	r0, #8192	; 0x2000
2000c1c4:	ebfff228 	bl	20008a6c <printk>
2000c1c8:	e30d0844 	movw	r0, #55364	; 0xd844
2000c1cc:	e3420000 	movt	r0, #8192	; 0x2000
2000c1d0:	ebfff225 	bl	20008a6c <printk>
2000c1d4:	e30d0870 	movw	r0, #55408	; 0xd870
2000c1d8:	e3420000 	movt	r0, #8192	; 0x2000
2000c1dc:	ebfff222 	bl	20008a6c <printk>
2000c1e0:	e30d0768 	movw	r0, #55144	; 0xd768
2000c1e4:	e3420000 	movt	r0, #8192	; 0x2000
2000c1e8:	ebfff21f 	bl	20008a6c <printk>
2000c1ec:	e30d0894 	movw	r0, #55444	; 0xd894
2000c1f0:	e3420000 	movt	r0, #8192	; 0x2000
2000c1f4:	ebfff21c 	bl	20008a6c <printk>
2000c1f8:	e30d08c8 	movw	r0, #55496	; 0xd8c8
2000c1fc:	e3420000 	movt	r0, #8192	; 0x2000
2000c200:	ebfff219 	bl	20008a6c <printk>
2000c204:	e30d08e4 	movw	r0, #55524	; 0xd8e4
2000c208:	e3420000 	movt	r0, #8192	; 0x2000
2000c20c:	ebfff216 	bl	20008a6c <printk>
2000c210:	e30d0918 	movw	r0, #55576	; 0xd918
2000c214:	e3420000 	movt	r0, #8192	; 0x2000
2000c218:	ebfff213 	bl	20008a6c <printk>
2000c21c:	eaffffdd 	b	2000c198 <task3_func+0x4>

2000c220 <task0_func>:
2000c220:	e92d4038 	push	{r3, r4, r5, lr}
2000c224:	e30f4be0 	movw	r4, #64480	; 0xfbe0
2000c228:	e3424000 	movt	r4, #8192	; 0x2000
2000c22c:	e3a03000 	mov	r3, #0
2000c230:	e5843000 	str	r3, [r4]
2000c234:	ebfff2a7 	bl	20008cd8 <raw_local_fiqirq_disable>
2000c238:	e5941000 	ldr	r1, [r4]
2000c23c:	e30836a0 	movw	r3, #34464	; 0x86a0
2000c240:	e3403001 	movt	r3, #1
2000c244:	e1a05000 	mov	r5, r0
2000c248:	e2533001 	subs	r3, r3, #1
2000c24c:	1afffffd 	bne	2000c248 <task0_func+0x28>
2000c250:	e2811b61 	add	r1, r1, #99328	; 0x18400
2000c254:	e30d0740 	movw	r0, #55104	; 0xd740
2000c258:	e2811e2a 	add	r1, r1, #672	; 0x2a0
2000c25c:	e3420000 	movt	r0, #8192	; 0x2000
2000c260:	e5841000 	str	r1, [r4]
2000c264:	ebfff200 	bl	20008a6c <printk>
2000c268:	e129f005 	msr	CPSR_fc, r5
2000c26c:	eafffff0 	b	2000c234 <task0_func+0x14>

2000c270 <task1_func>:
2000c270:	e92d4038 	push	{r3, r4, r5, lr}
2000c274:	e30d06c8 	movw	r0, #54984	; 0xd6c8
2000c278:	e30f4be0 	movw	r4, #64480	; 0xfbe0
2000c27c:	e3420000 	movt	r0, #8192	; 0x2000
2000c280:	e3424000 	movt	r4, #8192	; 0x2000
2000c284:	e3a03000 	mov	r3, #0
2000c288:	e5843000 	str	r3, [r4]
2000c28c:	ebfff1f6 	bl	20008a6c <printk>
2000c290:	e3a00001 	mov	r0, #1
2000c294:	eb000117 	bl	2000c6f8 <sleep>
2000c298:	ebfff28e 	bl	20008cd8 <raw_local_fiqirq_disable>
2000c29c:	e5941000 	ldr	r1, [r4]
2000c2a0:	e30836a0 	movw	r3, #34464	; 0x86a0
2000c2a4:	e3403001 	movt	r3, #1
2000c2a8:	e1a05000 	mov	r5, r0
2000c2ac:	e2533001 	subs	r3, r3, #1
2000c2b0:	1afffffd 	bne	2000c2ac <task1_func+0x3c>
2000c2b4:	e2811b61 	add	r1, r1, #99328	; 0x18400
2000c2b8:	e30d0754 	movw	r0, #55124	; 0xd754
2000c2bc:	e2811e2a 	add	r1, r1, #672	; 0x2a0
2000c2c0:	e3420000 	movt	r0, #8192	; 0x2000
2000c2c4:	e5841000 	str	r1, [r4]
2000c2c8:	ebfff1e7 	bl	20008a6c <printk>
2000c2cc:	e129f005 	msr	CPSR_fc, r5
2000c2d0:	eaffffee 	b	2000c290 <task1_func+0x20>

2000c2d4 <blkmemory_test>:
2000c2d4:	e92d43f0 	push	{r4, r5, r6, r7, r8, r9, lr}
2000c2d8:	e24dd034 	sub	sp, sp, #52	; 0x34
2000c2dc:	e28d6030 	add	r6, sp, #48	; 0x30
2000c2e0:	e3a04802 	mov	r4, #131072	; 0x20000
2000c2e4:	e1a0800d 	mov	r8, sp
2000c2e8:	e1a0500d 	mov	r5, sp
2000c2ec:	e1a00004 	mov	r0, r4
2000c2f0:	e2855008 	add	r5, r5, #8
2000c2f4:	ebfff818 	bl	2000a35c <krnl_alloc>
2000c2f8:	e1a01004 	mov	r1, r4
2000c2fc:	e3a02000 	mov	r2, #0
2000c300:	e1a0c000 	mov	ip, r0
2000c304:	e30d094c 	movw	r0, #55628	; 0xd94c
2000c308:	e505c008 	str	ip, [r5, #-8]
2000c30c:	e1a0300c 	mov	r3, ip
2000c310:	e3420000 	movt	r0, #8192	; 0x2000
2000c314:	ebfff1d4 	bl	20008a6c <printk>
2000c318:	e1a00004 	mov	r0, r4
2000c31c:	ebfff80e 	bl	2000a35c <krnl_alloc>
2000c320:	e1a01004 	mov	r1, r4
2000c324:	e3a02001 	mov	r2, #1
2000c328:	e1a04084 	lsl	r4, r4, #1
2000c32c:	e1a0c000 	mov	ip, r0
2000c330:	e30d094c 	movw	r0, #55628	; 0xd94c
2000c334:	e505c004 	str	ip, [r5, #-4]
2000c338:	e1a0300c 	mov	r3, ip
2000c33c:	e3420000 	movt	r0, #8192	; 0x2000
2000c340:	ebfff1c9 	bl	20008a6c <printk>
2000c344:	ebfff50e 	bl	20009784 <blk_print_4M_cnt>
2000c348:	e1a01000 	mov	r1, r0
2000c34c:	e30d0974 	movw	r0, #55668	; 0xd974
2000c350:	e3420000 	movt	r0, #8192	; 0x2000
2000c354:	ebfff1c4 	bl	20008a6c <printk>
2000c358:	e1550006 	cmp	r5, r6
2000c35c:	1affffe2 	bne	2000c2ec <blkmemory_test+0x18>
2000c360:	e3a09501 	mov	r9, #4194304	; 0x400000
2000c364:	ea000010 	b	2000c3ac <blkmemory_test+0xd8>
2000c368:	e30d09ac 	movw	r0, #55724	; 0xd9ac
2000c36c:	e2444001 	sub	r4, r4, #1
2000c370:	e1a01005 	mov	r1, r5
2000c374:	e3420000 	movt	r0, #8192	; 0x2000
2000c378:	ebfff1bb 	bl	20008a6c <printk>
2000c37c:	e3740001 	cmn	r4, #1
2000c380:	e3a04000 	mov	r4, #0
2000c384:	1a00000a 	bne	2000c3b4 <blkmemory_test+0xe0>
2000c388:	ebfff4fd 	bl	20009784 <blk_print_4M_cnt>
2000c38c:	e2466008 	sub	r6, r6, #8
2000c390:	e1a090a9 	lsr	r9, r9, #1
2000c394:	e1a01000 	mov	r1, r0
2000c398:	e30d0974 	movw	r0, #55668	; 0xd974
2000c39c:	e3420000 	movt	r0, #8192	; 0x2000
2000c3a0:	ebfff1b1 	bl	20008a6c <printk>
2000c3a4:	e1580006 	cmp	r8, r6
2000c3a8:	0a00000c 	beq	2000c3e0 <blkmemory_test+0x10c>
2000c3ac:	e1a07006 	mov	r7, r6
2000c3b0:	e3a04001 	mov	r4, #1
2000c3b4:	e5375004 	ldr	r5, [r7, #-4]!
2000c3b8:	e1a01009 	mov	r1, r9
2000c3bc:	e1a00005 	mov	r0, r5
2000c3c0:	ebfff7ee 	bl	2000a380 <krnl_free>
2000c3c4:	e3500000 	cmp	r0, #0
2000c3c8:	1affffe6 	bne	2000c368 <blkmemory_test+0x94>
2000c3cc:	e30d0990 	movw	r0, #55696	; 0xd990
2000c3d0:	e1a01005 	mov	r1, r5
2000c3d4:	e3420000 	movt	r0, #8192	; 0x2000
2000c3d8:	ebfff1a3 	bl	20008a6c <printk>
2000c3dc:	eaffffe1 	b	2000c368 <blkmemory_test+0x94>
2000c3e0:	e28dd034 	add	sp, sp, #52	; 0x34
2000c3e4:	e8bd83f0 	pop	{r4, r5, r6, r7, r8, r9, pc}

2000c3e8 <pagememory_test>:
2000c3e8:	e92d43f0 	push	{r4, r5, r6, r7, r8, r9, lr}
2000c3ec:	e24dd01c 	sub	sp, sp, #28
2000c3f0:	e28d8004 	add	r8, sp, #4
2000c3f4:	e30f9a6c 	movw	r9, #64108	; 0xfa6c
2000c3f8:	e3429000 	movt	r9, #8192	; 0x2000
2000c3fc:	e3a04001 	mov	r4, #1
2000c400:	e1a06008 	mov	r6, r8
2000c404:	e3a00b0a 	mov	r0, #10240	; 0x2800
2000c408:	ebfff7d3 	bl	2000a35c <krnl_alloc>
2000c40c:	e3540001 	cmp	r4, #1
2000c410:	e1a05000 	mov	r5, r0
2000c414:	e30d09f8 	movw	r0, #55800	; 0xd9f8
2000c418:	e2451a01 	sub	r1, r5, #4096	; 0x1000
2000c41c:	e3420000 	movt	r0, #8192	; 0x2000
2000c420:	e4865004 	str	r5, [r6], #4
2000c424:	0a000020 	beq	2000c4ac <pagememory_test+0xc4>
2000c428:	ebfff18f 	bl	20008a6c <printk>
2000c42c:	e30d0a10 	movw	r0, #55824	; 0xda10
2000c430:	e3420000 	movt	r0, #8192	; 0x2000
2000c434:	e5971030 	ldr	r1, [r7, #48]	; 0x30
2000c438:	ebfff18b 	bl	20008a6c <printk>
2000c43c:	e3540005 	cmp	r4, #5
2000c440:	0a000001 	beq	2000c44c <pagememory_test+0x64>
2000c444:	e2844001 	add	r4, r4, #1
2000c448:	eaffffed 	b	2000c404 <pagememory_test+0x1c>
2000c44c:	e28d5014 	add	r5, sp, #20
2000c450:	e5354004 	ldr	r4, [r5, #-4]!
2000c454:	e3a01b0a 	mov	r1, #10240	; 0x2800
2000c458:	e1a00004 	mov	r0, r4
2000c45c:	ebfff7c7 	bl	2000a380 <krnl_free>
2000c460:	e3500000 	cmp	r0, #0
2000c464:	0a00000b 	beq	2000c498 <pagememory_test+0xb0>
2000c468:	e30d0a38 	movw	r0, #55864	; 0xda38
2000c46c:	e2441a01 	sub	r1, r4, #4096	; 0x1000
2000c470:	e3420000 	movt	r0, #8192	; 0x2000
2000c474:	ebfff17c 	bl	20008a6c <printk>
2000c478:	e30d0a10 	movw	r0, #55824	; 0xda10
2000c47c:	e3420000 	movt	r0, #8192	; 0x2000
2000c480:	e5971030 	ldr	r1, [r7, #48]	; 0x30
2000c484:	ebfff178 	bl	20008a6c <printk>
2000c488:	e1550008 	cmp	r5, r8
2000c48c:	1affffef 	bne	2000c450 <pagememory_test+0x68>
2000c490:	e28dd01c 	add	sp, sp, #28
2000c494:	e8bd83f0 	pop	{r4, r5, r6, r7, r8, r9, pc}
2000c498:	e30d0990 	movw	r0, #55696	; 0xd990
2000c49c:	e1a01004 	mov	r1, r4
2000c4a0:	e3420000 	movt	r0, #8192	; 0x2000
2000c4a4:	ebfff170 	bl	20008a6c <printk>
2000c4a8:	eaffffee 	b	2000c468 <pagememory_test+0x80>
2000c4ac:	e599703c 	ldr	r7, [r9, #60]	; 0x3c
2000c4b0:	e30d09d0 	movw	r0, #55760	; 0xd9d0
2000c4b4:	e3420000 	movt	r0, #8192	; 0x2000
2000c4b8:	e5971020 	ldr	r1, [r7, #32]
2000c4bc:	ebfff16a 	bl	20008a6c <printk>
2000c4c0:	e30d09f8 	movw	r0, #55800	; 0xd9f8
2000c4c4:	e2451a01 	sub	r1, r5, #4096	; 0x1000
2000c4c8:	e3420000 	movt	r0, #8192	; 0x2000
2000c4cc:	ebfff166 	bl	20008a6c <printk>
2000c4d0:	e30d0a10 	movw	r0, #55824	; 0xda10
2000c4d4:	e5971030 	ldr	r1, [r7, #48]	; 0x30
2000c4d8:	e3420000 	movt	r0, #8192	; 0x2000
2000c4dc:	ebfff162 	bl	20008a6c <printk>
2000c4e0:	eaffffd7 	b	2000c444 <pagememory_test+0x5c>

2000c4e4 <bytememory_test>:
2000c4e4:	e92d43f0 	push	{r4, r5, r6, r7, r8, r9, lr}
2000c4e8:	e24dd02c 	sub	sp, sp, #44	; 0x2c
2000c4ec:	e30f9a6c 	movw	r9, #64108	; 0xfa6c
2000c4f0:	e3a04001 	mov	r4, #1
2000c4f4:	e1a0800d 	mov	r8, sp
2000c4f8:	e3429000 	movt	r9, #8192	; 0x2000
2000c4fc:	e1a0600d 	mov	r6, sp
2000c500:	ea000000 	b	2000c508 <bytememory_test+0x24>
2000c504:	e2844001 	add	r4, r4, #1
2000c508:	e3a00004 	mov	r0, #4
2000c50c:	ebfff792 	bl	2000a35c <krnl_alloc>
2000c510:	e3540001 	cmp	r4, #1
2000c514:	e1a05000 	mov	r5, r0
2000c518:	e30d09f8 	movw	r0, #55800	; 0xd9f8
2000c51c:	e1a01005 	mov	r1, r5
2000c520:	e3420000 	movt	r0, #8192	; 0x2000
2000c524:	e4865004 	str	r5, [r6], #4
2000c528:	0a00001f 	beq	2000c5ac <bytememory_test+0xc8>
2000c52c:	ebfff14e 	bl	20008a6c <printk>
2000c530:	e30d0a78 	movw	r0, #55928	; 0xda78
2000c534:	e3420000 	movt	r0, #8192	; 0x2000
2000c538:	e5971030 	ldr	r1, [r7, #48]	; 0x30
2000c53c:	ebfff14a 	bl	20008a6c <printk>
2000c540:	e354000a 	cmp	r4, #10
2000c544:	1affffee 	bne	2000c504 <bytememory_test+0x20>
2000c548:	e28d5028 	add	r5, sp, #40	; 0x28
2000c54c:	ea000009 	b	2000c578 <bytememory_test+0x94>
2000c550:	e30d0a38 	movw	r0, #55864	; 0xda38
2000c554:	e1a01004 	mov	r1, r4
2000c558:	e3420000 	movt	r0, #8192	; 0x2000
2000c55c:	ebfff142 	bl	20008a6c <printk>
2000c560:	e30d0a78 	movw	r0, #55928	; 0xda78
2000c564:	e3420000 	movt	r0, #8192	; 0x2000
2000c568:	e5971030 	ldr	r1, [r7, #48]	; 0x30
2000c56c:	ebfff13e 	bl	20008a6c <printk>
2000c570:	e1550008 	cmp	r5, r8
2000c574:	0a00000a 	beq	2000c5a4 <bytememory_test+0xc0>
2000c578:	e5354004 	ldr	r4, [r5, #-4]!
2000c57c:	e3a01004 	mov	r1, #4
2000c580:	e1a00004 	mov	r0, r4
2000c584:	ebfff77d 	bl	2000a380 <krnl_free>
2000c588:	e3500000 	cmp	r0, #0
2000c58c:	1affffef 	bne	2000c550 <bytememory_test+0x6c>
2000c590:	e30d0990 	movw	r0, #55696	; 0xd990
2000c594:	e1a01004 	mov	r1, r4
2000c598:	e3420000 	movt	r0, #8192	; 0x2000
2000c59c:	ebfff132 	bl	20008a6c <printk>
2000c5a0:	eaffffea 	b	2000c550 <bytememory_test+0x6c>
2000c5a4:	e28dd02c 	add	sp, sp, #44	; 0x2c
2000c5a8:	e8bd83f0 	pop	{r4, r5, r6, r7, r8, r9, pc}
2000c5ac:	e5997040 	ldr	r7, [r9, #64]	; 0x40
2000c5b0:	e30d0a4c 	movw	r0, #55884	; 0xda4c
2000c5b4:	e3420000 	movt	r0, #8192	; 0x2000
2000c5b8:	e5971020 	ldr	r1, [r7, #32]
2000c5bc:	ebfff12a 	bl	20008a6c <printk>
2000c5c0:	e30d09f8 	movw	r0, #55800	; 0xd9f8
2000c5c4:	e1a01005 	mov	r1, r5
2000c5c8:	e3420000 	movt	r0, #8192	; 0x2000
2000c5cc:	ebfff126 	bl	20008a6c <printk>
2000c5d0:	e30d0a78 	movw	r0, #55928	; 0xda78
2000c5d4:	e5971030 	ldr	r1, [r7, #48]	; 0x30
2000c5d8:	e3420000 	movt	r0, #8192	; 0x2000
2000c5dc:	ebfff122 	bl	20008a6c <printk>
2000c5e0:	eaffffc7 	b	2000c504 <bytememory_test+0x20>

2000c5e4 <task0>:
2000c5e4:	e52de004 	push	{lr}		; (str lr, [sp, #-4]!)
2000c5e8:	e24dd00c 	sub	sp, sp, #12
2000c5ec:	e30c0220 	movw	r0, #49696	; 0xc220
2000c5f0:	e3a03901 	mov	r3, #16384	; 0x4000
2000c5f4:	e3420000 	movt	r0, #8192	; 0x2000
2000c5f8:	e58d3000 	str	r3, [sp]
2000c5fc:	e3a01002 	mov	r1, #2
2000c600:	e3a02000 	mov	r2, #0
2000c604:	ebfffc88 	bl	2000b82c <krnl_new_thread>
2000c608:	e3500000 	cmp	r0, #0
2000c60c:	0a000001 	beq	2000c618 <task0+0x34>
2000c610:	e28dd00c 	add	sp, sp, #12
2000c614:	e49df004 	pop	{pc}		; (ldr pc, [sp], #4)
2000c618:	e30d0aa4 	movw	r0, #55972	; 0xdaa4
2000c61c:	e3420000 	movt	r0, #8192	; 0x2000
2000c620:	ebfff111 	bl	20008a6c <printk>
2000c624:	eafffffe 	b	2000c624 <task0+0x40>

2000c628 <task1>:
2000c628:	e52de004 	push	{lr}		; (str lr, [sp, #-4]!)
2000c62c:	e24dd00c 	sub	sp, sp, #12
2000c630:	e30c0270 	movw	r0, #49776	; 0xc270
2000c634:	e3a03901 	mov	r3, #16384	; 0x4000
2000c638:	e3420000 	movt	r0, #8192	; 0x2000
2000c63c:	e58d3000 	str	r3, [sp]
2000c640:	e3a01001 	mov	r1, #1
2000c644:	e3a02000 	mov	r2, #0
2000c648:	ebfffc77 	bl	2000b82c <krnl_new_thread>
2000c64c:	e3500000 	cmp	r0, #0
2000c650:	0a000001 	beq	2000c65c <task1+0x34>
2000c654:	e28dd00c 	add	sp, sp, #12
2000c658:	e49df004 	pop	{pc}		; (ldr pc, [sp], #4)
2000c65c:	e30d0ab8 	movw	r0, #55992	; 0xdab8
2000c660:	e3420000 	movt	r0, #8192	; 0x2000
2000c664:	ebfff100 	bl	20008a6c <printk>
2000c668:	eafffffe 	b	2000c668 <task1+0x40>

2000c66c <task2>:
2000c66c:	e52de004 	push	{lr}		; (str lr, [sp, #-4]!)
2000c670:	e24dd00c 	sub	sp, sp, #12
2000c674:	e3a01000 	mov	r1, #0
2000c678:	e30c0108 	movw	r0, #49416	; 0xc108
2000c67c:	e3a03901 	mov	r3, #16384	; 0x4000
2000c680:	e3420000 	movt	r0, #8192	; 0x2000
2000c684:	e58d3000 	str	r3, [sp]
2000c688:	e1a02001 	mov	r2, r1
2000c68c:	ebfffc66 	bl	2000b82c <krnl_new_thread>
2000c690:	e3500000 	cmp	r0, #0
2000c694:	0a000001 	beq	2000c6a0 <task2+0x34>
2000c698:	e28dd00c 	add	sp, sp, #12
2000c69c:	e49df004 	pop	{pc}		; (ldr pc, [sp], #4)
2000c6a0:	e30d0ab8 	movw	r0, #55992	; 0xdab8
2000c6a4:	e3420000 	movt	r0, #8192	; 0x2000
2000c6a8:	ebfff0ef 	bl	20008a6c <printk>
2000c6ac:	eafffffe 	b	2000c6ac <task2+0x40>

2000c6b0 <task3>:
2000c6b0:	e52de004 	push	{lr}		; (str lr, [sp, #-4]!)
2000c6b4:	e24dd00c 	sub	sp, sp, #12
2000c6b8:	e30c0194 	movw	r0, #49556	; 0xc194
2000c6bc:	e3a03901 	mov	r3, #16384	; 0x4000
2000c6c0:	e3420000 	movt	r0, #8192	; 0x2000
2000c6c4:	e58d3000 	str	r3, [sp]
2000c6c8:	e3a01004 	mov	r1, #4
2000c6cc:	e3a02000 	mov	r2, #0
2000c6d0:	ebfffc55 	bl	2000b82c <krnl_new_thread>
2000c6d4:	e3500000 	cmp	r0, #0
2000c6d8:	0a000001 	beq	2000c6e4 <task3+0x34>
2000c6dc:	e28dd00c 	add	sp, sp, #12
2000c6e0:	e49df004 	pop	{pc}		; (ldr pc, [sp], #4)
2000c6e4:	e30d0ab8 	movw	r0, #55992	; 0xdab8
2000c6e8:	e3420000 	movt	r0, #8192	; 0x2000
2000c6ec:	ebfff0de 	bl	20008a6c <printk>
2000c6f0:	eafffffe 	b	2000c6f0 <task3+0x40>

2000c6f4 <krnl_task_init>:
2000c6f4:	eaffffed 	b	2000c6b0 <task3>

2000c6f8 <sleep>:
2000c6f8:	e1a01000 	mov	r1, r0
2000c6fc:	e30f0318 	movw	r0, #62232	; 0xf318
2000c700:	e3420000 	movt	r0, #8192	; 0x2000
2000c704:	eafffd79 	b	2000bcf0 <krnl_sched_wait>

2000c708 <krnl_deal_sleep>:
2000c708:	e92d4ff0 	push	{r4, r5, r6, r7, r8, r9, sl, fp, lr}
2000c70c:	e24dd00c 	sub	sp, sp, #12
2000c710:	ebfff170 	bl	20008cd8 <raw_local_fiqirq_disable>
2000c714:	e30f5318 	movw	r5, #62232	; 0xf318
2000c718:	e3425000 	movt	r5, #8192	; 0x2000
2000c71c:	e58d0004 	str	r0, [sp, #4]
2000c720:	ebfff16c 	bl	20008cd8 <raw_local_fiqirq_disable>
2000c724:	e5953004 	ldr	r3, [r5, #4]
2000c728:	e3530000 	cmp	r3, #0
2000c72c:	0a000030 	beq	2000c7f4 <krnl_deal_sleep+0xec>
2000c730:	e1a06005 	mov	r6, r5
2000c734:	e1a0a000 	mov	sl, r0
2000c738:	e5b64008 	ldr	r4, [r6, #8]!
2000c73c:	e1540006 	cmp	r4, r6
2000c740:	130f7328 	movwne	r7, #62248	; 0xf328
2000c744:	13a08004 	movne	r8, #4
2000c748:	13427000 	movtne	r7, #8192	; 0x2000
2000c74c:	1a000004 	bne	2000c764 <krnl_deal_sleep+0x5c>
2000c750:	ea000024 	b	2000c7e8 <krnl_deal_sleep+0xe0>
2000c754:	e129f00b 	msr	CPSR_fc, fp
2000c758:	e5944000 	ldr	r4, [r4]
2000c75c:	e1540006 	cmp	r4, r6
2000c760:	0a000020 	beq	2000c7e8 <krnl_deal_sleep+0xe0>
2000c764:	ebfff15b 	bl	20008cd8 <raw_local_fiqirq_disable>
2000c768:	e594301c 	ldr	r3, [r4, #28]
2000c76c:	e2433001 	sub	r3, r3, #1
2000c770:	e584301c 	str	r3, [r4, #28]
2000c774:	e3530000 	cmp	r3, #0
2000c778:	e1a0b000 	mov	fp, r0
2000c77c:	1afffff4 	bne	2000c754 <krnl_deal_sleep+0x4c>
2000c780:	e5941020 	ldr	r1, [r4, #32]
2000c784:	e594c004 	ldr	ip, [r4, #4]
2000c788:	e594e000 	ldr	lr, [r4]
2000c78c:	e0813081 	add	r3, r1, r1, lsl #1
2000c790:	e5950004 	ldr	r0, [r5, #4]
2000c794:	e1a03103 	lsl	r3, r3, #2
2000c798:	e58ec004 	str	ip, [lr, #4]
2000c79c:	e0879003 	add	r9, r7, r3
2000c7a0:	e58ce000 	str	lr, [ip]
2000c7a4:	e2893034 	add	r3, r9, #52	; 0x34
2000c7a8:	e2400001 	sub	r0, r0, #1
2000c7ac:	e599e034 	ldr	lr, [r9, #52]	; 0x34
2000c7b0:	e5850004 	str	r0, [r5, #4]
2000c7b4:	e59f0040 	ldr	r0, [pc, #64]	; 2000c7fc <krnl_deal_sleep+0xf4>
2000c7b8:	e58e4004 	str	r4, [lr, #4]
2000c7bc:	e5843004 	str	r3, [r4, #4]
2000c7c0:	e584e000 	str	lr, [r4]
2000c7c4:	e5894034 	str	r4, [r9, #52]	; 0x34
2000c7c8:	e584800c 	str	r8, [r4, #12]
2000c7cc:	ebfffdf4 	bl	2000bfa4 <bitmap_set_bit>
2000c7d0:	e599303c 	ldr	r3, [r9, #60]	; 0x3c
2000c7d4:	e2833001 	add	r3, r3, #1
2000c7d8:	e589303c 	str	r3, [r9, #60]	; 0x3c
2000c7dc:	ebfffd3b 	bl	2000bcd0 <krnl_set_schedflag>
2000c7e0:	e5954008 	ldr	r4, [r5, #8]
2000c7e4:	eaffffda 	b	2000c754 <krnl_deal_sleep+0x4c>
2000c7e8:	e129f00a 	msr	CPSR_fc, sl
2000c7ec:	e59d3004 	ldr	r3, [sp, #4]
2000c7f0:	e129f003 	msr	CPSR_fc, r3
2000c7f4:	e28dd00c 	add	sp, sp, #12
2000c7f8:	e8bd8ff0 	pop	{r4, r5, r6, r7, r8, r9, sl, fp, pc}
2000c7fc:	2000f34c 	andcs	pc, r0, ip, asr #6

2000c800 <systick_open>:
2000c800:	e30d0acc 	movw	r0, #56012	; 0xdacc
2000c804:	e92d4008 	push	{r3, lr}
2000c808:	e3420000 	movt	r0, #8192	; 0x2000
2000c80c:	ebfff096 	bl	20008a6c <printk>
2000c810:	e3a00000 	mov	r0, #0
2000c814:	e8bd8008 	pop	{r3, pc}

2000c818 <systick_handle>:
2000c818:	e92d4008 	push	{r3, lr}
2000c81c:	ebfffc60 	bl	2000b9a4 <krnl_rtn_curtthread>
2000c820:	ebfffc51 	bl	2000b96c <krnl_inc_thread_tick>
2000c824:	e8bd4008 	pop	{r3, lr}
2000c828:	eaffffb6 	b	2000c708 <krnl_deal_sleep>

2000c82c <systick_drv_init>:
2000c82c:	e92d4030 	push	{r4, r5, lr}
2000c830:	e30d4ae4 	movw	r4, #56036	; 0xdae4
2000c834:	e30f1ac0 	movw	r1, #64192	; 0xfac0
2000c838:	e3424000 	movt	r4, #8192	; 0x2000
2000c83c:	e24dd014 	sub	sp, sp, #20
2000c840:	e3421000 	movt	r1, #8192	; 0x2000
2000c844:	e1a00004 	mov	r0, r4
2000c848:	ebfffb1a 	bl	2000b4b8 <driver_alloc>
2000c84c:	e2505000 	subs	r5, r0, #0
2000c850:	0a000053 	beq	2000c9a4 <systick_drv_init+0x178>
2000c854:	e3a00000 	mov	r0, #0
2000c858:	e28d100c 	add	r1, sp, #12
2000c85c:	e1a02004 	mov	r2, r4
2000c860:	ebfffa94 	bl	2000b2b8 <register_chrdev>
2000c864:	e3500000 	cmp	r0, #0
2000c868:	0a00004d 	beq	2000c9a4 <systick_drv_init+0x178>
2000c86c:	e1a00005 	mov	r0, r5
2000c870:	e59d100c 	ldr	r1, [sp, #12]
2000c874:	ebfffaf6 	bl	2000b454 <driver_add_device>
2000c878:	e1a00005 	mov	r0, r5
2000c87c:	ebfffb48 	bl	2000b5a4 <driver_add_system>
2000c880:	e3a03000 	mov	r3, #0
2000c884:	e34e3260 	movt	r3, #57952	; 0xe260
2000c888:	e5932000 	ldr	r2, [r3]
2000c88c:	e3822801 	orr	r2, r2, #65536	; 0x10000
2000c890:	e5832000 	str	r2, [r3]
2000c894:	e3a02b05 	mov	r2, #5120	; 0x1400
2000c898:	e5832000 	str	r2, [r3]
2000c89c:	e3a03008 	mov	r3, #8
2000c8a0:	e3a02001 	mov	r2, #1
2000c8a4:	e34e3260 	movt	r3, #57952	; 0xe260
2000c8a8:	e5832000 	str	r2, [r3]
2000c8ac:	e3a01020 	mov	r1, #32
2000c8b0:	e34e1260 	movt	r1, #57952	; 0xe260
2000c8b4:	e3a03020 	mov	r3, #32
2000c8b8:	e34e3260 	movt	r3, #57952	; 0xe260
2000c8bc:	e5912000 	ldr	r2, [r1]
2000c8c0:	e3120004 	tst	r2, #4
2000c8c4:	0afffffa 	beq	2000c8b4 <systick_drv_init+0x88>
2000c8c8:	e5932000 	ldr	r2, [r3]
2000c8cc:	e5832000 	str	r2, [r3]
2000c8d0:	e3a02018 	mov	r2, #24
2000c8d4:	e3a0100a 	mov	r1, #10
2000c8d8:	e34e2260 	movt	r2, #57952	; 0xe260
2000c8dc:	e5821000 	str	r1, [r2]
2000c8e0:	e1a01003 	mov	r1, r3
2000c8e4:	e3a03020 	mov	r3, #32
2000c8e8:	e34e3260 	movt	r3, #57952	; 0xe260
2000c8ec:	e5912000 	ldr	r2, [r1]
2000c8f0:	e3120010 	tst	r2, #16
2000c8f4:	0afffffa 	beq	2000c8e4 <systick_drv_init+0xb8>
2000c8f8:	e5932000 	ldr	r2, [r3]
2000c8fc:	e5832000 	str	r2, [r3]
2000c900:	e3a01044 	mov	r1, #68	; 0x44
2000c904:	e34e1250 	movt	r1, #57936	; 0xe250
2000c908:	e5912000 	ldr	r2, [r1]
2000c90c:	e3822041 	orr	r2, r2, #65	; 0x41
2000c910:	e5832000 	str	r2, [r3]
2000c914:	e3a02004 	mov	r2, #4
2000c918:	e34e2260 	movt	r2, #57952	; 0xe260
2000c91c:	e5921000 	ldr	r1, [r2]
2000c920:	e3811031 	orr	r1, r1, #49	; 0x31
2000c924:	e5821000 	str	r1, [r2]
2000c928:	e3a01020 	mov	r1, #32
2000c92c:	e34e1260 	movt	r1, #57952	; 0xe260
2000c930:	e593c000 	ldr	ip, [r3]
2000c934:	e31c0020 	tst	ip, #32
2000c938:	0afffffa 	beq	2000c928 <systick_drv_init+0xfc>
2000c93c:	e5913000 	ldr	r3, [r1]
2000c940:	e5813000 	str	r3, [r1]
2000c944:	e3a03004 	mov	r3, #4
2000c948:	e34e3260 	movt	r3, #57952	; 0xe260
2000c94c:	e5932000 	ldr	r2, [r3]
2000c950:	e3822008 	orr	r2, r2, #8
2000c954:	e5832000 	str	r2, [r3]
2000c958:	e3a03020 	mov	r3, #32
2000c95c:	e34e3260 	movt	r3, #57952	; 0xe260
2000c960:	e591c000 	ldr	ip, [r1]
2000c964:	e31c0020 	tst	ip, #32
2000c968:	0afffffa 	beq	2000c958 <systick_drv_init+0x12c>
2000c96c:	e5932000 	ldr	r2, [r3]
2000c970:	e5832000 	str	r2, [r3]
2000c974:	e30c1818 	movw	r1, #51224	; 0xc818
2000c978:	e58d4000 	str	r4, [sp]
2000c97c:	e59d200c 	ldr	r2, [sp, #12]
2000c980:	e3a04000 	mov	r4, #0
2000c984:	e3421000 	movt	r1, #8192	; 0x2000
2000c988:	e58d4004 	str	r4, [sp, #4]
2000c98c:	e3a03005 	mov	r3, #5
2000c990:	e3a0001a 	mov	r0, #26
2000c994:	ebfff922 	bl	2000ae24 <request_irq>
2000c998:	e1a00004 	mov	r0, r4
2000c99c:	e28dd014 	add	sp, sp, #20
2000c9a0:	e8bd8030 	pop	{r4, r5, pc}
2000c9a4:	e3e00000 	mvn	r0, #0
2000c9a8:	e28dd014 	add	sp, sp, #20
2000c9ac:	e8bd8030 	pop	{r4, r5, pc}

2000c9b0 <uart2_open>:
2000c9b0:	e30d0acc 	movw	r0, #56012	; 0xdacc
2000c9b4:	e92d4008 	push	{r3, lr}
2000c9b8:	e3420000 	movt	r0, #8192	; 0x2000
2000c9bc:	ebfff02a 	bl	20008a6c <printk>
2000c9c0:	e3a00000 	mov	r0, #0
2000c9c4:	e8bd8008 	pop	{r3, pc}

2000c9c8 <uart2_handle>:
2000c9c8:	e92d4008 	push	{r3, lr}
2000c9cc:	ebfffbf4 	bl	2000b9a4 <krnl_rtn_curtthread>
2000c9d0:	ebfffbe5 	bl	2000b96c <krnl_inc_thread_tick>
2000c9d4:	e8bd4008 	pop	{r3, lr}
2000c9d8:	eaffff4a 	b	2000c708 <krnl_deal_sleep>

2000c9dc <uart2_drv_init>:
2000c9dc:	e30d0aec 	movw	r0, #56044	; 0xdaec
2000c9e0:	e30f1ad0 	movw	r1, #64208	; 0xfad0
2000c9e4:	e92d4010 	push	{r4, lr}
2000c9e8:	e3420000 	movt	r0, #8192	; 0x2000
2000c9ec:	e24dd008 	sub	sp, sp, #8
2000c9f0:	e3421000 	movt	r1, #8192	; 0x2000
2000c9f4:	ebfffaaf 	bl	2000b4b8 <driver_alloc>
2000c9f8:	e2504000 	subs	r4, r0, #0
2000c9fc:	0a00000e 	beq	2000ca3c <uart2_drv_init+0x60>
2000ca00:	e30d2aec 	movw	r2, #56044	; 0xdaec
2000ca04:	e3a00000 	mov	r0, #0
2000ca08:	e3422000 	movt	r2, #8192	; 0x2000
2000ca0c:	e28d1004 	add	r1, sp, #4
2000ca10:	ebfffa28 	bl	2000b2b8 <register_chrdev>
2000ca14:	e3500000 	cmp	r0, #0
2000ca18:	0a000007 	beq	2000ca3c <uart2_drv_init+0x60>
2000ca1c:	e1a00004 	mov	r0, r4
2000ca20:	e59d1004 	ldr	r1, [sp, #4]
2000ca24:	ebfffa8a 	bl	2000b454 <driver_add_device>
2000ca28:	e1a00004 	mov	r0, r4
2000ca2c:	ebfffadc 	bl	2000b5a4 <driver_add_system>
2000ca30:	e3a00000 	mov	r0, #0
2000ca34:	e28dd008 	add	sp, sp, #8
2000ca38:	e8bd8010 	pop	{r4, pc}
2000ca3c:	e3e00000 	mvn	r0, #0
2000ca40:	e28dd008 	add	sp, sp, #8
2000ca44:	e8bd8010 	pop	{r4, pc}

2000ca48 <memcpy>:
2000ca48:	e3510000 	cmp	r1, #0
2000ca4c:	13500000 	cmpne	r0, #0
2000ca50:	0a000008 	beq	2000ca78 <memcpy+0x30>
2000ca54:	e3520000 	cmp	r2, #0
2000ca58:	012fff1e 	bxeq	lr
2000ca5c:	e0812002 	add	r2, r1, r2
2000ca60:	e2403001 	sub	r3, r0, #1
2000ca64:	e4d1c001 	ldrb	ip, [r1], #1
2000ca68:	e1510002 	cmp	r1, r2
2000ca6c:	e5e3c001 	strb	ip, [r3, #1]!
2000ca70:	1afffffb 	bne	2000ca64 <memcpy+0x1c>
2000ca74:	e12fff1e 	bx	lr
2000ca78:	e3a00000 	mov	r0, #0
2000ca7c:	e12fff1e 	bx	lr

2000ca80 <strcpy>:
2000ca80:	e3510000 	cmp	r1, #0
2000ca84:	13500000 	cmpne	r0, #0
2000ca88:	0a000005 	beq	2000caa4 <strcpy+0x24>
2000ca8c:	e1a02000 	mov	r2, r0
2000ca90:	e4d13001 	ldrb	r3, [r1], #1
2000ca94:	e3530000 	cmp	r3, #0
2000ca98:	e4c23001 	strb	r3, [r2], #1
2000ca9c:	1afffffb 	bne	2000ca90 <strcpy+0x10>
2000caa0:	e12fff1e 	bx	lr
2000caa4:	e3a00000 	mov	r0, #0
2000caa8:	e12fff1e 	bx	lr

2000caac <strlcpy>:
2000caac:	e3510000 	cmp	r1, #0
2000cab0:	13500000 	cmpne	r0, #0
2000cab4:	0a000008 	beq	2000cadc <strlcpy+0x30>
2000cab8:	e3520000 	cmp	r2, #0
2000cabc:	012fff1e 	bxeq	lr
2000cac0:	e0812002 	add	r2, r1, r2
2000cac4:	e2403001 	sub	r3, r0, #1
2000cac8:	e4d1c001 	ldrb	ip, [r1], #1
2000cacc:	e1510002 	cmp	r1, r2
2000cad0:	e5e3c001 	strb	ip, [r3, #1]!
2000cad4:	1afffffb 	bne	2000cac8 <strlcpy+0x1c>
2000cad8:	e12fff1e 	bx	lr
2000cadc:	e3a00000 	mov	r0, #0
2000cae0:	e12fff1e 	bx	lr

2000cae4 <memset>:
2000cae4:	e3520000 	cmp	r2, #0
2000cae8:	e6ef1071 	uxtb	r1, r1
2000caec:	012fff1e 	bxeq	lr
2000caf0:	e0802002 	add	r2, r0, r2
2000caf4:	e1a03000 	mov	r3, r0
2000caf8:	e4c31001 	strb	r1, [r3], #1
2000cafc:	e1530002 	cmp	r3, r2
2000cb00:	1afffffc 	bne	2000caf8 <memset+0x14>
2000cb04:	e12fff1e 	bx	lr

2000cb08 <strlen>:
2000cb08:	e2501000 	subs	r1, r0, #0
2000cb0c:	0a000008 	beq	2000cb34 <strlen+0x2c>
2000cb10:	e5d12000 	ldrb	r2, [r1]
2000cb14:	e2813001 	add	r3, r1, #1
2000cb18:	e3520000 	cmp	r2, #0
2000cb1c:	0a000006 	beq	2000cb3c <strlen+0x34>
2000cb20:	e0610003 	rsb	r0, r1, r3
2000cb24:	e4d32001 	ldrb	r2, [r3], #1
2000cb28:	e3520000 	cmp	r2, #0
2000cb2c:	1afffffb 	bne	2000cb20 <strlen+0x18>
2000cb30:	e12fff1e 	bx	lr
2000cb34:	e1a00001 	mov	r0, r1
2000cb38:	e12fff1e 	bx	lr
2000cb3c:	e1a00002 	mov	r0, r2
2000cb40:	e12fff1e 	bx	lr

2000cb44 <strcmp>:
2000cb44:	e3500000 	cmp	r0, #0
2000cb48:	0a00001a 	beq	2000cbb8 <strcmp+0x74>
2000cb4c:	e3510000 	cmp	r1, #0
2000cb50:	0a00001a 	beq	2000cbc0 <strcmp+0x7c>
2000cb54:	e5d03000 	ldrb	r3, [r0]
2000cb58:	e5d12000 	ldrb	r2, [r1]
2000cb5c:	e3530000 	cmp	r3, #0
2000cb60:	0a000012 	beq	2000cbb0 <strcmp+0x6c>
2000cb64:	e062c003 	rsb	ip, r2, r3
2000cb68:	e3520000 	cmp	r2, #0
2000cb6c:	e16fcf1c 	clz	ip, ip
2000cb70:	e1a0c2ac 	lsr	ip, ip, #5
2000cb74:	03a0c000 	moveq	ip, #0
2000cb78:	e35c0000 	cmp	ip, #0
2000cb7c:	1a000007 	bne	2000cba0 <strcmp+0x5c>
2000cb80:	ea00000a 	b	2000cbb0 <strcmp+0x6c>
2000cb84:	e5f12001 	ldrb	r2, [r1, #1]!
2000cb88:	e292c000 	adds	ip, r2, #0
2000cb8c:	13a0c001 	movne	ip, #1
2000cb90:	e1530002 	cmp	r3, r2
2000cb94:	13a0c000 	movne	ip, #0
2000cb98:	e35c0000 	cmp	ip, #0
2000cb9c:	0a000003 	beq	2000cbb0 <strcmp+0x6c>
2000cba0:	e5f03001 	ldrb	r3, [r0, #1]!
2000cba4:	e3530000 	cmp	r3, #0
2000cba8:	1afffff5 	bne	2000cb84 <strcmp+0x40>
2000cbac:	e5d12001 	ldrb	r2, [r1, #1]
2000cbb0:	e0620003 	rsb	r0, r2, r3
2000cbb4:	e12fff1e 	bx	lr
2000cbb8:	e5d10000 	ldrb	r0, [r1]
2000cbbc:	e12fff1e 	bx	lr
2000cbc0:	e5d00000 	ldrb	r0, [r0]
2000cbc4:	e12fff1e 	bx	lr

2000cbc8 <atoi>:
2000cbc8:	e52de004 	push	{lr}		; (str lr, [sp, #-4]!)
2000cbcc:	e5d02000 	ldrb	r2, [r0]
2000cbd0:	e242302b 	sub	r3, r2, #43	; 0x2b
2000cbd4:	e242e02d 	sub	lr, r2, #45	; 0x2d
2000cbd8:	e16fef1e 	clz	lr, lr
2000cbdc:	e31300fd 	tst	r3, #253	; 0xfd
2000cbe0:	e1a0e2ae 	lsr	lr, lr, #5
2000cbe4:	1a000014 	bne	2000cc3c <atoi+0x74>
2000cbe8:	e5d02001 	ldrb	r2, [r0, #1]
2000cbec:	e2800001 	add	r0, r0, #1
2000cbf0:	e3a0c00a 	mov	ip, #10
2000cbf4:	e3520000 	cmp	r2, #0
2000cbf8:	0a00001a 	beq	2000cc68 <atoi+0xa0>
2000cbfc:	e2423030 	sub	r3, r2, #48	; 0x30
2000cc00:	e6ef3073 	uxtb	r3, r3
2000cc04:	e3530009 	cmp	r3, #9
2000cc08:	8a000018 	bhi	2000cc70 <atoi+0xa8>
2000cc0c:	e2423030 	sub	r3, r2, #48	; 0x30
2000cc10:	e3a01000 	mov	r1, #0
2000cc14:	e5f02001 	ldrb	r2, [r0, #1]!
2000cc18:	e021319c 	mla	r1, ip, r1, r3
2000cc1c:	e2423030 	sub	r3, r2, #48	; 0x30
2000cc20:	e6ef2073 	uxtb	r2, r3
2000cc24:	e3520009 	cmp	r2, #9
2000cc28:	9afffff9 	bls	2000cc14 <atoi+0x4c>
2000cc2c:	e26e2000 	rsb	r2, lr, #0
2000cc30:	e0210002 	eor	r0, r1, r2
2000cc34:	e080000e 	add	r0, r0, lr
2000cc38:	e49df004 	pop	{pc}		; (ldr pc, [sp], #4)
2000cc3c:	e3520030 	cmp	r2, #48	; 0x30
2000cc40:	13a0c00a 	movne	ip, #10
2000cc44:	1affffea 	bne	2000cbf4 <atoi+0x2c>
2000cc48:	e5d03001 	ldrb	r3, [r0, #1]
2000cc4c:	e3530078 	cmp	r3, #120	; 0x78
2000cc50:	13a0c00a 	movne	ip, #10
2000cc54:	1affffec 	bne	2000cc0c <atoi+0x44>
2000cc58:	e5d02002 	ldrb	r2, [r0, #2]
2000cc5c:	e3a0c010 	mov	ip, #16
2000cc60:	e2800002 	add	r0, r0, #2
2000cc64:	eaffffe2 	b	2000cbf4 <atoi+0x2c>
2000cc68:	e1a01002 	mov	r1, r2
2000cc6c:	eaffffee 	b	2000cc2c <atoi+0x64>
2000cc70:	e3a01000 	mov	r1, #0
2000cc74:	eaffffec 	b	2000cc2c <atoi+0x64>

2000cc78 <itoa>:
2000cc78:	e30cce6c 	movw	ip, #52844	; 0xce6c
2000cc7c:	e342c000 	movt	ip, #8192	; 0x2000
2000cc80:	e92d43f0 	push	{r4, r5, r6, r7, r8, r9, lr}
2000cc84:	e1a07000 	mov	r7, r0
2000cc88:	e1a04001 	mov	r4, r1
2000cc8c:	e1a08002 	mov	r8, r2
2000cc90:	e242600a 	sub	r6, r2, #10
2000cc94:	e24dd01c 	sub	sp, sp, #28
2000cc98:	e8bc000f 	ldm	ip!, {r0, r1, r2, r3}
2000cc9c:	e16f6f16 	clz	r6, r6
2000cca0:	e28de004 	add	lr, sp, #4
2000cca4:	e6ef9078 	uxtb	r9, r8
2000cca8:	e1a062a6 	lsr	r6, r6, #5
2000ccac:	e0166fa7 	ands	r6, r6, r7, lsr #31
2000ccb0:	e59cc000 	ldr	ip, [ip]
2000ccb4:	12677000 	rsbne	r7, r7, #0
2000ccb8:	06ef7077 	uxtbeq	r7, r7
2000ccbc:	13a06001 	movne	r6, #1
2000ccc0:	e8ae000f 	stmia	lr!, {r0, r1, r2, r3}
2000ccc4:	13a0302d 	movne	r3, #45	; 0x2d
2000ccc8:	e5cec000 	strb	ip, [lr]
2000cccc:	15c43000 	strbne	r3, [r4]
2000ccd0:	e1a00007 	mov	r0, r7
2000ccd4:	e1a01009 	mov	r1, r9
2000ccd8:	ebffee6b 	bl	2000868c <__aeabi_uidivmod>
2000ccdc:	e28d3018 	add	r3, sp, #24
2000cce0:	e1a00007 	mov	r0, r7
2000cce4:	e2865001 	add	r5, r6, #1
2000cce8:	e6ef5075 	uxtb	r5, r5
2000ccec:	e0833001 	add	r3, r3, r1
2000ccf0:	e1a01008 	mov	r1, r8
2000ccf4:	e5533014 	ldrb	r3, [r3, #-20]	; 0xffffffec
2000ccf8:	e7c43006 	strb	r3, [r4, r6]
2000ccfc:	e1a06005 	mov	r6, r5
2000cd00:	ebffee3b 	bl	200085f4 <__udivsi3>
2000cd04:	e2507000 	subs	r7, r0, #0
2000cd08:	1afffff0 	bne	2000ccd0 <itoa+0x58>
2000cd0c:	e7c47005 	strb	r7, [r4, r5]
2000cd10:	e245e001 	sub	lr, r5, #1
2000cd14:	e5d43000 	ldrb	r3, [r4]
2000cd18:	e08e5fae 	add	r5, lr, lr, lsr #31
2000cd1c:	e243302d 	sub	r3, r3, #45	; 0x2d
2000cd20:	e16f3f13 	clz	r3, r3
2000cd24:	e1a050c5 	asr	r5, r5, #1
2000cd28:	e1a032a3 	lsr	r3, r3, #5
2000cd2c:	e1550003 	cmp	r5, r3
2000cd30:	ba000009 	blt	2000cd5c <itoa+0xe4>
2000cd34:	e083e00e 	add	lr, r3, lr
2000cd38:	e063200e 	rsb	r2, r3, lr
2000cd3c:	e2830001 	add	r0, r3, #1
2000cd40:	e7d41003 	ldrb	r1, [r4, r3]
2000cd44:	e7d4c002 	ldrb	ip, [r4, r2]
2000cd48:	e7c4c003 	strb	ip, [r4, r3]
2000cd4c:	e6ef3070 	uxtb	r3, r0
2000cd50:	e1530005 	cmp	r3, r5
2000cd54:	e7c41002 	strb	r1, [r4, r2]
2000cd58:	dafffff6 	ble	2000cd38 <itoa+0xc0>
2000cd5c:	e1a00004 	mov	r0, r4
2000cd60:	e28dd01c 	add	sp, sp, #28
2000cd64:	e8bd83f0 	pop	{r4, r5, r6, r7, r8, r9, pc}

2000cd68 <strstr>:
2000cd68:	e5d02000 	ldrb	r2, [r0]
2000cd6c:	e3520000 	cmp	r2, #0
2000cd70:	012fff1e 	bxeq	lr
2000cd74:	e92d4010 	push	{r4, lr}
2000cd78:	e5d14000 	ldrb	r4, [r1]
2000cd7c:	e3540000 	cmp	r4, #0
2000cd80:	08bd8010 	popeq	{r4, pc}
2000cd84:	e1a0e000 	mov	lr, r0
2000cd88:	e1a0c001 	mov	ip, r1
2000cd8c:	e1a03004 	mov	r3, r4
2000cd90:	ea000003 	b	2000cda4 <strstr+0x3c>
2000cd94:	e5fc3001 	ldrb	r3, [ip, #1]!
2000cd98:	e3530000 	cmp	r3, #0
2000cd9c:	08bd8010 	popeq	{r4, pc}
2000cda0:	e5fe2001 	ldrb	r2, [lr, #1]!
2000cda4:	e1530002 	cmp	r3, r2
2000cda8:	0afffff9 	beq	2000cd94 <strstr+0x2c>
2000cdac:	e5f02001 	ldrb	r2, [r0, #1]!
2000cdb0:	e3520000 	cmp	r2, #0
2000cdb4:	1afffff2 	bne	2000cd84 <strstr+0x1c>
2000cdb8:	e1a00002 	mov	r0, r2
2000cdbc:	e8bd8010 	pop	{r4, pc}
2000cdc0:	736f6d65 	cmnvc	pc, #6464	; 0x1940
2000cdc4:	72656b20 	rsbvc	r6, r5, #32, 22	; 0x8000
2000cdc8:	206c656e 	rsbcs	r6, ip, lr, ror #10
2000cdcc:	64726168 	ldrbtvs	r6, [r2], #-360	; 0xfffffe98
2000cdd0:	65726177 	ldrbvs	r6, [r2, #-375]!	; 0xfffffe89
2000cdd4:	696e6920 	stmdbvs	lr!, {r5, r8, fp, sp, lr}^
2000cdd8:	74732074 	ldrbtvc	r2, [r3], #-116	; 0xffffff8c
2000cddc:	21747261 	cmncs	r4, r1, ror #4
2000cde0:	0000000a 	andeq	r0, r0, sl
2000cde4:	61746164 	cmnvs	r4, r4, ror #2
2000cde8:	72747320 	rsbsvc	r7, r4, #32, 6	; 0x80000000
2000cdec:	75746375 	ldrbvc	r6, [r4, #-885]!	; 0xfffffc8b
2000cdf0:	6f206572 	svcvs	0x00206572
2000cdf4:	656d2066 	strbvs	r2, [sp, #-102]!	; 0xffffff9a
2000cdf8:	79726f6d 	ldmdbvc	r2!, {r0, r2, r3, r5, r6, r8, r9, sl, fp, sp, lr}^
2000cdfc:	6e616d20 	cdpvs	13, 6, cr6, cr1, cr0, {1}
2000ce00:	6d656761 	stclvs	7, cr6, [r5, #-388]!	; 0xfffffe7c
2000ce04:	20746e65 	rsbscs	r6, r4, r5, ror #28
2000ce08:	74696e69 	strbtvc	r6, [r9], #-3689	; 0xfffff197
2000ce0c:	6e696620 	cdpvs	6, 6, cr6, cr9, cr0, {1}
2000ce10:	65687369 	strbvs	r7, [r8, #-873]!	; 0xfffffc97
2000ce14:	000a2164 	andeq	r2, sl, r4, ror #2
2000ce18:	61746164 	cmnvs	r4, r4, ror #2
2000ce1c:	72747320 	rsbsvc	r7, r4, #32, 6	; 0x80000000
2000ce20:	75746375 	ldrbvc	r6, [r4, #-885]!	; 0xfffffc8b
2000ce24:	6f206572 	svcvs	0x00206572
2000ce28:	6e692066 	cdpvs	0, 6, cr2, cr9, cr6, {3}
2000ce2c:	72726574 	rsbsvc	r6, r2, #116, 10	; 0x1d000000
2000ce30:	20747075 	rsbscs	r7, r4, r5, ror r0
2000ce34:	616e616d 	cmnvs	lr, sp, ror #2
2000ce38:	656d6567 	strbvs	r6, [sp, #-1383]!	; 0xfffffa99
2000ce3c:	6d20746e 	cfstrsvs	mvf7, [r0, #-440]!	; 0xfffffe48
2000ce40:	656c646f 	strbvs	r6, [ip, #-1135]!	; 0xfffffb91
2000ce44:	696e6920 	stmdbvs	lr!, {r5, r8, fp, sp, lr}^
2000ce48:	69662074 	stmdbvs	r6!, {r2, r4, r5, r6, sp}^
2000ce4c:	6873696e 	ldmdavs	r3!, {r1, r2, r3, r5, r6, r8, fp, sp, lr}^
2000ce50:	0a216465 	beq	20865fec <__end_bss+0x856400>
2000ce54:	00000000 	andeq	r0, r0, r0
2000ce58:	33323130 	teqcc	r2, #48, 2
2000ce5c:	37363534 			; <UNDEFINED> instruction: 0x37363534
2000ce60:	62613938 	rsbvs	r3, r1, #56, 18	; 0xe0000
2000ce64:	66656463 	strbtvs	r6, [r5], -r3, ror #8
2000ce68:	00000000 	andeq	r0, r0, r0
2000ce6c:	33323130 	teqcc	r2, #48, 2
2000ce70:	37363534 			; <UNDEFINED> instruction: 0x37363534
2000ce74:	42413938 	submi	r3, r1, #56, 18	; 0xe0000
2000ce78:	46454443 	strbmi	r4, [r5], -r3, asr #8
2000ce7c:	00000000 	andeq	r0, r0, r0
2000ce80:	41524453 	cmpmi	r2, r3, asr r4
2000ce84:	6973204d 	ldmdbvs	r3!, {r0, r2, r3, r6, sp}^
2000ce88:	203a657a 	eorscs	r6, sl, sl, ror r5
2000ce8c:	ef424731 	svc	0x00424731
2000ce90:	49208cbc 	stmdbmi	r0!, {r2, r3, r4, r5, r7, sl, fp, pc}
2000ce94:	7073204f 	rsbsvc	r2, r3, pc, asr #32
2000ce98:	3a656361 	bcc	21965c24 <__end_bss+0x1956038>
2000ce9c:	32783020 	rsbscc	r3, r8, #32
2000cea0:	30303030 	eorscc	r3, r0, r0, lsr r0
2000cea4:	20303030 	eorscs	r3, r0, r0, lsr r0
2000cea8:	7830202d 	ldmdavc	r0!, {r0, r2, r3, r5, sp}
2000ceac:	30303036 	eorscc	r3, r0, r6, lsr r0
2000ceb0:	30303030 	eorscc	r3, r0, r0, lsr r0
2000ceb4:	00000a2e 	andeq	r0, r0, lr, lsr #20
2000ceb8:	20717269 	rsbscs	r7, r1, r9, ror #4
2000cebc:	626d756e 	rsbvs	r7, sp, #461373440	; 0x1b800000
2000cec0:	203a7265 	eorscs	r7, sl, r5, ror #4
2000cec4:	000a6425 	andeq	r6, sl, r5, lsr #8
2000cec8:	622e6462 	eorvs	r6, lr, #1644167168	; 0x62000000
2000cecc:	6f6c5f64 	svcvs	0x006c5f64
2000ced0:	203a6b63 	eorscs	r6, sl, r3, ror #22
2000ced4:	000a6425 	andeq	r6, sl, r5, lsr #8
2000ced8:	622e6462 	eorvs	r6, lr, #1644167168	; 0x62000000
2000cedc:	696c5f64 	stmdbvs	ip!, {r2, r5, r6, r8, r9, sl, fp, ip, lr}^
2000cee0:	203a7473 	eorscs	r7, sl, r3, ror r4
2000cee4:	78257830 	stmdavc	r5!, {r4, r5, fp, ip, sp, lr}
2000cee8:	7270202c 	rsbsvc	r2, r0, #44	; 0x2c
2000ceec:	203a7665 	eorscs	r7, sl, r5, ror #12
2000cef0:	78257830 	stmdavc	r5!, {r4, r5, fp, ip, sp, lr}
2000cef4:	656e202c 	strbvs	r2, [lr, #-44]!	; 0xffffffd4
2000cef8:	203a7478 	eorscs	r7, sl, r8, ror r4
2000cefc:	78257830 	stmdavc	r5!, {r4, r5, fp, ip, sp, lr}
2000cf00:	0000000a 	andeq	r0, r0, sl
2000cf04:	622e6462 	eorvs	r6, lr, #1644167168	; 0x62000000
2000cf08:	726b5f64 	rsbvc	r5, fp, #100, 30	; 0x190
2000cf0c:	74736c6e 	ldrbtvc	r6, [r3], #-3182	; 0xfffff392
2000cf10:	61747261 	cmnvs	r4, r1, ror #4
2000cf14:	3a726464 	bcc	21ca60ac <__end_bss+0x1c964c0>
2000cf18:	25783020 	ldrbcs	r3, [r8, #-32]!	; 0xffffffe0
2000cf1c:	00000a78 	andeq	r0, r0, r8, ror sl
2000cf20:	622e6462 	eorvs	r6, lr, #1644167168	; 0x62000000
2000cf24:	726b5f64 	rsbvc	r5, fp, #100, 30	; 0x190
2000cf28:	6e656c6e 	cdpvs	12, 6, cr6, cr5, cr14, {3}
2000cf2c:	64646164 	strbtvs	r6, [r4], #-356	; 0xfffffe9c
2000cf30:	30203a72 	eorcc	r3, r0, r2, ror sl
2000cf34:	0a782578 	beq	21e1651c <__end_bss+0x1e06930>
2000cf38:	00000000 	andeq	r0, r0, r0
2000cf3c:	6d2e6462 	cfstrsvs	mvf6, [lr, #-392]!	; 0xfffffe78
2000cf40:	5f70616d 	svcpl	0x0070616d
2000cf44:	65736162 	ldrbvs	r6, [r3, #-354]!	; 0xfffffe9e
2000cf48:	72646461 	rsbvc	r6, r4, #1627389952	; 0x61000000
2000cf4c:	7830203a 	ldmdavc	r0!, {r1, r3, r4, r5, sp}
2000cf50:	000a7825 	andeq	r7, sl, r5, lsr #16
2000cf54:	6d2e6462 	cfstrsvs	mvf6, [lr, #-392]!	; 0xfffffe78
2000cf58:	5f70616d 	svcpl	0x0070616d
2000cf5c:	3a746e63 	bcc	21d288f0 <__end_bss+0x1d18d04>
2000cf60:	0a642520 	beq	219163e8 <__end_bss+0x19067fc>
2000cf64:	00000000 	andeq	r0, r0, r0
2000cf68:	612e6462 			; <UNDEFINED> instruction: 0x612e6462
2000cf6c:	70737264 	rsbsvc	r7, r3, r4, ror #4
2000cf70:	625f6563 	subsvs	r6, pc, #415236096	; 0x18c00000
2000cf74:	61657361 	cmnvs	r5, r1, ror #6
2000cf78:	3a726464 	bcc	21ca6110 <__end_bss+0x1c96524>
2000cf7c:	25783020 	ldrbcs	r3, [r8, #-32]!	; 0xffffffe0
2000cf80:	00000a78 	andeq	r0, r0, r8, ror sl
2000cf84:	612e6462 			; <UNDEFINED> instruction: 0x612e6462
2000cf88:	70737264 	rsbsvc	r7, r3, r4, ror #4
2000cf8c:	635f6563 	cmpvs	pc, #415236096	; 0x18c00000
2000cf90:	203a746e 	eorscs	r7, sl, lr, ror #8
2000cf94:	000a6425 	andeq	r6, sl, r5, lsr #8
2000cf98:	63736564 	cmnvs	r3, #100, 10	; 0x19000000
2000cf9c:	74706972 	ldrbtvc	r6, [r0], #-2418	; 0xfffff68e
2000cfa0:	206e6f69 	rsbcs	r6, lr, r9, ror #30
2000cfa4:	657a6973 	ldrbvs	r6, [sl, #-2419]!	; 0xfffff68d
2000cfa8:	6425203a 	strtvs	r2, [r5], #-58	; 0xffffffc6
2000cfac:	0000000a 	andeq	r0, r0, sl
2000cfb0:	72617473 	rsbvc	r7, r1, #1929379840	; 0x73000000
2000cfb4:	30203a74 	eorcc	r3, r0, r4, ror sl
2000cfb8:	20782578 	rsbscs	r2, r8, r8, ror r5
2000cfbc:	3a646e65 	bcc	21928958 <__end_bss+0x1918d6c>
2000cfc0:	25783020 	ldrbcs	r3, [r8, #-32]!	; 0xffffffe0
2000cfc4:	6c202c78 	stcvs	12, cr2, [r0], #-480	; 0xfffffe20
2000cfc8:	20747369 	rsbscs	r7, r4, r9, ror #6
2000cfcc:	72646461 	rsbvc	r6, r4, #1627389952	; 0x61000000
2000cfd0:	7830203a 	ldmdavc	r0!, {r1, r3, r4, r5, sp}
2000cfd4:	61207825 			; <UNDEFINED> instruction: 0x61207825
2000cfd8:	636f6c6c 	cmnvs	pc, #108, 24	; 0x6c00
2000cfdc:	7469625f 	strbtvc	r6, [r9], #-607	; 0xfffffda1
2000cfe0:	7830203a 	ldmdavc	r0!, {r1, r3, r4, r5, sp}
2000cfe4:	66207825 	strtvs	r7, [r0], -r5, lsr #16
2000cfe8:	7367616c 	cmnvc	r7, #108, 2
2000cfec:	7830203a 	ldmdavc	r0!, {r1, r3, r4, r5, sp}
2000cff0:	09207825 	stmdbeq	r0!, {r0, r2, r5, fp, ip, sp, lr}
2000cff4:	00000009 	andeq	r0, r0, r9
2000cff8:	20626c74 	rsbcs	r6, r2, r4, ror ip
2000cffc:	72646461 	rsbvc	r6, r4, #1627389952	; 0x61000000
2000d000:	7830203a 	ldmdavc	r0!, {r1, r3, r4, r5, sp}
2000d004:	0a207825 	beq	2082b0a0 <__end_bss+0x81b4b4>
2000d008:	00000000 	andeq	r0, r0, r0
2000d00c:	6e72656b 	cdpvs	5, 7, cr6, cr2, cr11, {3}
2000d010:	6973206c 	ldmdbvs	r3!, {r2, r3, r5, r6, sp}^
2000d014:	6120657a 			; <UNDEFINED> instruction: 0x6120657a
2000d018:	6c20646e 	cfstrsvs	mvf6, [r0], #-440	; 0xfffffe48
2000d01c:	7461636f 	strbtvc	r6, [r1], #-879	; 0xfffffc91
2000d020:	206e6f69 	rsbcs	r6, lr, r9, ror #30
2000d024:	6f727265 	svcvs	0x00727265
2000d028:	000a2172 	andeq	r2, sl, r2, ror r1
2000d02c:	6f6c6c61 	svcvs	0x006c6c61
2000d030:	6c622063 	stclvs	0, cr2, [r2], #-396	; 0xfffffe74
2000d034:	6425286b 	strtvs	r2, [r5], #-2155	; 0xfffff795
2000d038:	61203a29 			; <UNDEFINED> instruction: 0x61203a29
2000d03c:	636f6c6c 	cmnvs	pc, #108, 24	; 0x6c00
2000d040:	7a697320 	bvc	21a69cc8 <__end_bss+0x1a5a0dc>
2000d044:	30203a65 	eorcc	r3, r0, r5, ror #20
2000d048:	2c782578 	cfldr64cs	mvdx2, [r8], #-480	; 0xfffffe20
2000d04c:	64646120 	strbtvs	r6, [r4], #-288	; 0xfffffee0
2000d050:	30203a72 	eorcc	r3, r0, r2, ror sl
2000d054:	0a782578 	beq	21e1663c <__end_bss+0x1e06a50>
2000d058:	00000000 	andeq	r0, r0, r0
2000d05c:	65657266 	strbvs	r7, [r5, #-614]!	; 0xfffffd9a
2000d060:	6b6c6220 	blvs	21b258e8 <__end_bss+0x1b15cfc>
2000d064:	29642528 	stmdbcs	r4!, {r3, r5, r8, sl, sp}^
2000d068:	7266203a 	rsbvc	r2, r6, #58	; 0x3a
2000d06c:	73206565 			; <UNDEFINED> instruction: 0x73206565
2000d070:	3a657a69 	bcc	2196ba1c <__end_bss+0x195be30>
2000d074:	25783020 	ldrbcs	r3, [r8, #-32]!	; 0xffffffe0
2000d078:	61202c78 			; <UNDEFINED> instruction: 0x61202c78
2000d07c:	3a726464 	bcc	21ca6214 <__end_bss+0x1c96628>
2000d080:	25783020 	ldrbcs	r3, [r8, #-32]!	; 0xffffffe0
2000d084:	00000a78 	andeq	r0, r0, r8, ror sl
2000d088:	65657266 	strbvs	r7, [r5, #-614]!	; 0xfffffd9a
2000d08c:	72726520 	rsbsvc	r6, r2, #32, 10	; 0x8000000
2000d090:	0a21726f 	beq	20869a54 <__end_bss+0x859e68>
2000d094:	00000000 	andeq	r0, r0, r0
2000d098:	2d2d2d2d 	stccs	13, cr2, [sp, #-180]!	; 0xffffff4c
2000d09c:	2d2d2d2d 	stccs	13, cr2, [sp, #-180]!	; 0xffffff4c
2000d0a0:	2d2d2d2d 	stccs	13, cr2, [sp, #-180]!	; 0xffffff4c
2000d0a4:	2d2d2d2d 	stccs	13, cr2, [sp, #-180]!	; 0xffffff4c
2000d0a8:	2d2d2d2d 	stccs	13, cr2, [sp, #-180]!	; 0xffffff4c
2000d0ac:	2d2d2d2d 	stccs	13, cr2, [sp, #-180]!	; 0xffffff4c
2000d0b0:	2d2d2d2d 	stccs	13, cr2, [sp, #-180]!	; 0xffffff4c
2000d0b4:	2d2d2d2d 	stccs	13, cr2, [sp, #-180]!	; 0xffffff4c
2000d0b8:	2d2d2d2d 	stccs	13, cr2, [sp, #-180]!	; 0xffffff4c
2000d0bc:	2d2d2d2d 	stccs	13, cr2, [sp, #-180]!	; 0xffffff4c
2000d0c0:	2d2d2d2d 	stccs	13, cr2, [sp, #-180]!	; 0xffffff4c
2000d0c4:	2d2d2d2d 	stccs	13, cr2, [sp, #-180]!	; 0xffffff4c
2000d0c8:	2d2d2d2d 	stccs	13, cr2, [sp, #-180]!	; 0xffffff4c
2000d0cc:	2d2d2d2d 	stccs	13, cr2, [sp, #-180]!	; 0xffffff4c
2000d0d0:	2d2d2d2d 	stccs	13, cr2, [sp, #-180]!	; 0xffffff4c
2000d0d4:	2d2d2d2d 	stccs	13, cr2, [sp, #-180]!	; 0xffffff4c
2000d0d8:	2d2d2d2d 	stccs	13, cr2, [sp, #-180]!	; 0xffffff4c
2000d0dc:	2d2d2d2d 	stccs	13, cr2, [sp, #-180]!	; 0xffffff4c
2000d0e0:	2d2d2d2d 	stccs	13, cr2, [sp, #-180]!	; 0xffffff4c
2000d0e4:	2d2d2d2d 	stccs	13, cr2, [sp, #-180]!	; 0xffffff4c
2000d0e8:	0a2d2d2d 	beq	20b585a4 <__end_bss+0xb489b8>
2000d0ec:	00000000 	andeq	r0, r0, r0
2000d0f0:	6f6c6c61 	svcvs	0x006c6c61
2000d0f4:	72652063 	rsbvc	r2, r5, #99	; 0x63
2000d0f8:	21726f72 	cmncs	r2, r2, ror pc
2000d0fc:	0000000a 	andeq	r0, r0, sl
2000d100:	63204d34 			; <UNDEFINED> instruction: 0x63204d34
2000d104:	203a746e 	eorscs	r7, sl, lr, ror #8
2000d108:	202c6425 	eorcs	r6, ip, r5, lsr #8
2000d10c:	6f6c6c61 	svcvs	0x006c6c61
2000d110:	69732063 	ldmdbvs	r3!, {r0, r1, r5, r6, sp}^
2000d114:	203a657a 	eorscs	r6, sl, sl, ror r5
2000d118:	78257830 	stmdavc	r5!, {r4, r5, fp, ip, sp, lr}
2000d11c:	6461202c 	strbtvs	r2, [r1], #-44	; 0xffffffd4
2000d120:	203a7264 	eorscs	r7, sl, r4, ror #4
2000d124:	78257830 	stmdavc	r5!, {r4, r5, fp, ip, sp, lr}
2000d128:	0000000a 	andeq	r0, r0, sl
2000d12c:	65646e75 	strbvs	r6, [r4, #-3701]!	; 0xfffff18b
2000d130:	656e6966 	strbvs	r6, [lr, #-2406]!	; 0xfffff69a
2000d134:	736e6920 	cmnvc	lr, #32, 18	; 0x80000
2000d138:	63757274 	cmnvs	r5, #116, 4	; 0x40000007
2000d13c:	6e6f6974 			; <UNDEFINED> instruction: 0x6e6f6974
2000d140:	6f626120 	svcvs	0x00626120
2000d144:	6f207472 	svcvs	0x00207472
2000d148:	72756363 	rsbsvc	r6, r5, #-1946157055	; 0x8c000001
2000d14c:	00000021 	andeq	r0, r0, r1, lsr #32
2000d150:	66657270 			; <UNDEFINED> instruction: 0x66657270
2000d154:	68637465 	stmdavs	r3!, {r0, r2, r5, r6, sl, ip, sp, lr}^
2000d158:	736e6920 	cmnvc	lr, #32, 18	; 0x80000
2000d15c:	63757274 	cmnvs	r5, #116, 4	; 0x40000007
2000d160:	6e6f6974 			; <UNDEFINED> instruction: 0x6e6f6974
2000d164:	6f626120 	svcvs	0x00626120
2000d168:	6f207472 	svcvs	0x00207472
2000d16c:	72756363 	rsbsvc	r6, r5, #-1946157055	; 0x8c000001
2000d170:	00000021 	andeq	r0, r0, r1, lsr #32
2000d174:	61746164 	cmnvs	r4, r4, ror #2
2000d178:	63636120 	cmnvs	r3, #32, 2
2000d17c:	20737365 	rsbscs	r7, r3, r5, ror #6
2000d180:	726f6261 	rsbvc	r6, pc, #268435462	; 0x10000006
2000d184:	636f2074 	cmnvs	pc, #116	; 0x74
2000d188:	21727563 	cmncs	r2, r3, ror #10
2000d18c:	00000000 	andeq	r0, r0, r0
2000d190:	65746e69 	ldrbvs	r6, [r4, #-3689]!	; 0xfffff197
2000d194:	70757272 	rsbsvc	r7, r5, r2, ror r2
2000d198:	756e2074 	strbvc	r2, [lr, #-116]!	; 0xffffff8c
2000d19c:	7265626d 	rsbvc	r6, r5, #-805306362	; 0xd0000006
2000d1a0:	72726520 	rsbsvc	r6, r2, #32, 10	; 0x8000000
2000d1a4:	0a21726f 	beq	20869b68 <__end_bss+0x859f7c>
2000d1a8:	00000000 	andeq	r0, r0, r0
2000d1ac:	20716966 	rsbscs	r6, r1, r6, ror #18
2000d1b0:	65746e69 	ldrbvs	r6, [r4, #-3689]!	; 0xfffff197
2000d1b4:	75727272 	ldrbvc	r7, [r2, #-626]!	; 0xfffffd8e
2000d1b8:	6f207470 	svcvs	0x00207470
2000d1bc:	72756363 	rsbsvc	r6, r5, #-1946157055	; 0x8c000001
2000d1c0:	00000021 	andeq	r0, r0, r1, lsr #32
2000d1c4:	206e7572 	rsbcs	r7, lr, r2, ror r5
2000d1c8:	6b206e69 	blvs	20828b74 <__end_bss+0x818f88>
2000d1cc:	656e7265 	strbvs	r7, [lr, #-613]!	; 0xfffffd9b
2000d1d0:	656c206c 	strbvs	r2, [ip, #-108]!	; 0xffffff94
2000d1d4:	216c6576 	smccs	50774	; 0xc656
2000d1d8:	0000000a 	andeq	r0, r0, sl
2000d1dc:	6e72656b 	cdpvs	5, 7, cr6, cr2, cr11, {3}
2000d1e0:	73206c65 			; <UNDEFINED> instruction: 0x73206c65
2000d1e4:	74726174 	ldrbtvc	r6, [r2], #-372	; 0xfffffe8c
2000d1e8:	696e6920 	stmdbvs	lr!, {r5, r8, fp, sp, lr}^
2000d1ec:	72642074 	rsbvc	r2, r4, #116	; 0x74
2000d1f0:	72657669 	rsbvc	r7, r5, #110100480	; 0x6900000
2000d1f4:	646f6d20 	strbtvs	r6, [pc], #-3360	; 2000d1fc <strstr+0x494>
2000d1f8:	0a216c65 	beq	20868394 <__end_bss+0x8587a8>
2000d1fc:	00000000 	andeq	r0, r0, r0
2000d200:	6e72656b 	cdpvs	5, 7, cr6, cr2, cr11, {3}
2000d204:	73206c65 			; <UNDEFINED> instruction: 0x73206c65
2000d208:	74726174 	ldrbtvc	r6, [r2], #-372	; 0xfffffe8c
2000d20c:	206f7420 	rsbcs	r7, pc, r0, lsr #8
2000d210:	64616f6c 	strbtvs	r6, [r1], #-3948	; 0xfffff094
2000d214:	76656420 	strbtvc	r6, [r5], -r0, lsr #8
2000d218:	20656369 	rsbcs	r6, r5, r9, ror #6
2000d21c:	76697264 	strbtvc	r7, [r9], -r4, ror #4
2000d220:	0a2e7265 	beq	20ba9bbc <__end_bss+0xb99fd0>
2000d224:	00000000 	andeq	r0, r0, r0
2000d228:	206c6c61 	rsbcs	r6, ip, r1, ror #24
2000d22c:	69766564 	ldmdbvs	r6!, {r2, r5, r6, r8, sl, sp, lr}^
2000d230:	0a3a6563 	beq	20ea67c4 <__end_bss+0xe96bd8>
2000d234:	00000000 	andeq	r0, r0, r0
2000d238:	6e72656b 	cdpvs	5, 7, cr6, cr2, cr11, {3}
2000d23c:	73206c65 			; <UNDEFINED> instruction: 0x73206c65
2000d240:	64656863 	strbtvs	r6, [r5], #-2147	; 0xfffff79d
2000d244:	72656c75 	rsbvc	r6, r5, #29952	; 0x7500
2000d248:	696e6920 	stmdbvs	lr!, {r5, r8, fp, sp, lr}^
2000d24c:	69662074 	stmdbvs	r6!, {r2, r4, r5, r6, sp}^
2000d250:	6873696e 	ldmdavs	r3!, {r1, r2, r3, r5, r6, r8, fp, sp, lr}^
2000d254:	0a216465 	beq	208663f0 <__end_bss+0x856804>
2000d258:	00000000 	andeq	r0, r0, r0
2000d25c:	206e7572 	rsbcs	r7, lr, r2, ror r5
2000d260:	6b206e69 	blvs	20828c0c <__end_bss+0x819020>
2000d264:	206c6e72 	rsbcs	r6, ip, r2, ror lr
2000d268:	6576656c 	ldrbvs	r6, [r6, #-1388]!	; 0xfffffa94
2000d26c:	000a216c 	andeq	r2, sl, ip, ror #2
2000d270:	6b636f6c 	blvs	218e9028 <__end_bss+0x18d943c>
2000d274:	6425203a 	strtvs	r2, [r5], #-58	; 0xffffffc6
2000d278:	6f63202c 	svcvs	0x0063202c
2000d27c:	3a746e75 	bcc	21d28c58 <__end_bss+0x1d1906c>
2000d280:	20642520 	rsbcs	r2, r4, r0, lsr #10
2000d284:	00000000 	andeq	r0, r0, r0
2000d288:	6c5f6c77 	mrrcvs	12, 7, r6, pc, cr7	; <UNPREDICTABLE>
2000d28c:	3a6b636f 	bcc	21ae6050 <__end_bss+0x1ad6464>
2000d290:	2c642520 	cfstr64cs	mvdx2, [r4], #-128	; 0xffffff80
2000d294:	5f6c7720 	svcpl	0x006c7720
2000d298:	6e756f63 	cdpvs	15, 7, cr6, cr5, cr3, {3}
2000d29c:	25203a74 	strcs	r3, [r0, #-2676]!	; 0xfffff58c
2000d2a0:	77202c64 	strvc	r2, [r0, -r4, ror #24]!
2000d2a4:	696c5f6c 	stmdbvs	ip!, {r2, r3, r5, r6, r8, r9, sl, fp, ip, lr}^
2000d2a8:	702e7473 	eorvc	r7, lr, r3, ror r4
2000d2ac:	3a766572 	bcc	21da687c <__end_bss+0x1d96c90>
2000d2b0:	2c782520 	cfldr64cs	mvdx2, [r8], #-128	; 0xffffff80
2000d2b4:	5f6c7720 	svcpl	0x006c7720
2000d2b8:	7473696c 	ldrbtvc	r6, [r3], #-2412	; 0xfffff694
2000d2bc:	78656e2e 	stmdavc	r5!, {r1, r2, r3, r5, r9, sl, fp, sp, lr}^
2000d2c0:	25203a74 	strcs	r3, [r0, #-2676]!	; 0xfffff58c
2000d2c4:	77202c78 			; <UNDEFINED> instruction: 0x77202c78
2000d2c8:	696c5f6c 	stmdbvs	ip!, {r2, r3, r5, r6, r8, r9, sl, fp, ip, lr}^
2000d2cc:	203a7473 	eorscs	r7, sl, r3, ror r4
2000d2d0:	000a7825 	andeq	r7, sl, r5, lsr #16
2000d2d4:	656c6564 	strbvs	r6, [ip, #-1380]!	; 0xfffffa9c
2000d2d8:	70206574 	eorvc	r6, r0, r4, ror r5
2000d2dc:	20656761 	rsbcs	r6, r5, r1, ror #14
2000d2e0:	6c6c6f70 	stclvs	15, cr6, [ip], #-448	; 0xfffffe40
2000d2e4:	69616620 	stmdbvs	r1!, {r5, r9, sl, sp, lr}^
2000d2e8:	2164656c 	cmncs	r4, ip, ror #10
2000d2ec:	0000000a 	andeq	r0, r0, sl
2000d2f0:	65747962 	ldrbvs	r7, [r4, #-2402]!	; 0xfffff69e
2000d2f4:	6d656d20 	stclvs	13, cr6, [r5, #-128]!	; 0xffffff80
2000d2f8:	2079726f 	rsbscs	r7, r9, pc, ror #4
2000d2fc:	6f6c6c61 	svcvs	0x006c6c61
2000d300:	64612063 	strbtvs	r2, [r1], #-99	; 0xffffff9d
2000d304:	69207264 	stmdbvs	r0!, {r2, r5, r6, r9, ip, sp, lr}
2000d308:	6f6e2073 	svcvs	0x006e2073
2000d30c:	6c612074 	stclvs	0, cr2, [r1], #-464	; 0xfffffe30
2000d310:	206e6769 	rsbcs	r6, lr, r9, ror #14
2000d314:	34207461 	strtcc	r7, [r0], #-1121	; 0xfffffb9f
2000d318:	65747962 	ldrbvs	r7, [r4, #-2402]!	; 0xfffff69e
2000d31c:	00000021 	andeq	r0, r0, r1, lsr #32
2000d320:	65747962 	ldrbvs	r7, [r4, #-2402]!	; 0xfffff69e
2000d324:	6d656d20 	stclvs	13, cr6, [r5, #-128]!	; 0xffffff80
2000d328:	2079726f 	rsbscs	r7, r9, pc, ror #4
2000d32c:	6f6c6c61 	svcvs	0x006c6c61
2000d330:	706d2063 	rsbvc	r2, sp, r3, rrx
2000d334:	6165686c 	cmnvs	r5, ip, ror #16
2000d338:	20745f64 	rsbscs	r5, r4, r4, ror #30
2000d33c:	74696e69 	strbtvc	r6, [r9], #-3689	; 0xfffff197
2000d340:	69616620 	stmdbvs	r1!, {r5, r9, sl, sp, lr}^
2000d344:	2164656c 	cmncs	r4, ip, ror #10
2000d348:	00000000 	andeq	r0, r0, r0
2000d34c:	656c6564 	strbvs	r6, [ip, #-1380]!	; 0xfffffa9c
2000d350:	62206574 	eorvs	r6, r0, #116, 10	; 0x1d000000
2000d354:	20657479 	rsbcs	r7, r5, r9, ror r4
2000d358:	6c6c6f70 	stclvs	15, cr6, [ip], #-448	; 0xfffffe40
2000d35c:	69616620 	stmdbvs	r1!, {r5, r9, sl, sp, lr}^
2000d360:	2164656c 	cmncs	r4, ip, ror #10
2000d364:	0000000a 	andeq	r0, r0, sl
2000d368:	6f727265 	svcvs	0x00727265
2000d36c:	74203a72 	strtvc	r3, [r0], #-2674	; 0xfffff58e
2000d370:	20736968 	rsbscs	r6, r3, r8, ror #18
2000d374:	20717269 	rsbscs	r7, r1, r9, ror #4
2000d378:	75716572 	ldrbvc	r6, [r1, #-1394]!	; 0xfffffa8e
2000d37c:	65747365 	ldrbvs	r7, [r4, #-869]!	; 0xfffffc9b
2000d380:	6e612064 	cdpvs	0, 6, cr2, cr1, cr4, {3}
2000d384:	6f6e2064 	svcvs	0x006e2064
2000d388:	61687320 	cmnvs	r8, r0, lsr #6
2000d38c:	0a216572 	beq	2086695c <__end_bss+0x856d70>
2000d390:	00000000 	andeq	r0, r0, r0
2000d394:	6f727265 	svcvs	0x00727265
2000d398:	72203a72 	eorvc	r3, r0, #466944	; 0x72000
2000d39c:	65757165 	ldrbvs	r7, [r5, #-357]!	; 0xfffffe9b
2000d3a0:	69207473 	stmdbvs	r0!, {r0, r1, r4, r5, r6, sl, ip, sp, lr}
2000d3a4:	6d207172 	stfvss	f7, [r0, #-456]!	; 0xfffffe38
2000d3a8:	20747375 	rsbscs	r7, r4, r5, ror r3
2000d3ac:	65766168 	ldrbvs	r6, [r6, #-360]!	; 0xfffffe98
2000d3b0:	61687320 	cmnvs	r8, r0, lsr #6
2000d3b4:	66206572 			; <UNDEFINED> instruction: 0x66206572
2000d3b8:	2167616c 	cmncs	r7, ip, ror #2
2000d3bc:	0000000a 	andeq	r0, r0, sl
2000d3c0:	6f6c6c61 	svcvs	0x006c6c61
2000d3c4:	656d2063 	strbvs	r2, [sp, #-99]!	; 0xffffff9d
2000d3c8:	79726f6d 	ldmdbvc	r2!, {r0, r2, r3, r5, r6, r8, r9, sl, fp, sp, lr}^
2000d3cc:	69616620 	stmdbvs	r1!, {r5, r9, sl, sp, lr}^
2000d3d0:	2064656c 	rsbcs	r6, r4, ip, ror #10
2000d3d4:	72206e69 	eorvc	r6, r0, #1680	; 0x690
2000d3d8:	65757165 	ldrbvs	r7, [r5, #-357]!	; 0xfffffe9b
2000d3dc:	695f7473 	ldmdbvs	pc, {r0, r1, r4, r5, r6, sl, ip, sp, lr}^	; <UNPREDICTABLE>
2000d3e0:	66207172 			; <UNDEFINED> instruction: 0x66207172
2000d3e4:	74636e75 	strbtvc	r6, [r3], #-3701	; 0xfffff18b
2000d3e8:	206e6f69 	rsbcs	r6, lr, r9, ror #30
2000d3ec:	6b20666f 	blvs	20826db0 <__end_bss+0x8171c4>
2000d3f0:	696c6e72 	stmdbvs	ip!, {r1, r4, r5, r6, r9, sl, fp, sp, lr}^
2000d3f4:	7265746e 	rsbvc	r7, r5, #1845493760	; 0x6e000000
2000d3f8:	74707572 	ldrbtvc	r7, [r0], #-1394	; 0xfffffa8e
2000d3fc:	000a632e 	andeq	r6, sl, lr, lsr #6
2000d400:	6f727265 	svcvs	0x00727265
2000d404:	74203a72 	strtvc	r3, [r0], #-2674	; 0xfffff58e
2000d408:	20736968 	rsbscs	r6, r3, r8, ror #18
2000d40c:	20717269 	rsbscs	r7, r1, r9, ror #4
2000d410:	75716572 	ldrbvc	r6, [r1, #-1394]!	; 0xfffffa8e
2000d414:	65747365 	ldrbvs	r7, [r4, #-869]!	; 0xfffffc9b
2000d418:	6e692064 	cdpvs	0, 6, cr2, cr9, cr4, {3}
2000d41c:	66696420 	strbtvs	r6, [r9], -r0, lsr #8
2000d420:	65726566 	ldrbvs	r6, [r2, #-1382]!	; 0xfffffa9a
2000d424:	6620746e 	strtvs	r7, [r0], -lr, ror #8
2000d428:	0a67616c 	beq	219e59e0 <__end_bss+0x19d5df4>
2000d42c:	00000000 	andeq	r0, r0, r0
2000d430:	65657266 	strbvs	r7, [r5, #-614]!	; 0xfffffd9a
2000d434:	6d656d20 	stclvs	13, cr6, [r5, #-128]!	; 0xffffff80
2000d438:	2079726f 	rsbscs	r7, r9, pc, ror #4
2000d43c:	6c696166 	stfvse	f6, [r9], #-408	; 0xfffffe68
2000d440:	69206465 	stmdbvs	r0!, {r0, r2, r5, r6, sl, sp, lr}
2000d444:	6572206e 	ldrbvs	r2, [r2, #-110]!	; 0xffffff92
2000d448:	73657571 	cmnvc	r5, #473956352	; 0x1c400000
2000d44c:	72695f74 	rsbvc	r5, r9, #116, 30	; 0x1d0
2000d450:	75662071 	strbvc	r2, [r6, #-113]!	; 0xffffff8f
2000d454:	6974636e 	ldmdbvs	r4!, {r1, r2, r3, r5, r6, r8, r9, sp, lr}^
2000d458:	6f206e6f 	svcvs	0x00206e6f
2000d45c:	726b2066 	rsbvc	r2, fp, #102	; 0x66
2000d460:	6e696c6e 	cdpvs	12, 6, cr6, cr9, cr14, {3}
2000d464:	72726574 	rsbsvc	r6, r2, #116, 10	; 0x1d000000
2000d468:	2e747075 	mrccs	0, 3, r7, cr4, cr5, {3}
2000d46c:	00000a63 	andeq	r0, r0, r3, ror #20
2000d470:	2079656b 	rsbscs	r6, r9, fp, ror #10
2000d474:	64207075 	strtvs	r7, [r0], #-117	; 0xffffff8b
2000d478:	2c6e776f 	stclcs	7, cr7, [lr], #-444	; 0xfffffe44
2000d47c:	71726920 	cmnvc	r2, r0, lsr #18
2000d480:	6d756e20 	ldclvs	14, cr6, [r5, #-128]!	; 0xffffff80
2000d484:	20726562 	rsbscs	r6, r2, r2, ror #10
2000d488:	6b20666f 	blvs	20826e4c <__end_bss+0x817260>
2000d48c:	203a7965 	eorscs	r7, sl, r5, ror #18
2000d490:	000a6425 	andeq	r6, sl, r5, lsr #8
2000d494:	2079656b 	rsbscs	r6, r9, fp, ror #10
2000d498:	7466656c 	strbtvc	r6, [r6], #-1388	; 0xfffffa94
2000d49c:	776f6420 	strbvc	r6, [pc, -r0, lsr #8]!
2000d4a0:	69202c6e 	stmdbvs	r0!, {r1, r2, r3, r5, r6, sl, fp, sp}
2000d4a4:	6e207172 	mcrvs	1, 1, r7, cr0, cr2, {3}
2000d4a8:	65626d75 	strbvs	r6, [r2, #-3445]!	; 0xfffff28b
2000d4ac:	666f2072 			; <UNDEFINED> instruction: 0x666f2072
2000d4b0:	79656b20 	stmdbvc	r5!, {r5, r8, r9, fp, sp, lr}^
2000d4b4:	6425203a 	strtvs	r2, [r5], #-58	; 0xffffffc6
2000d4b8:	646e6120 	strbtvs	r6, [lr], #-288	; 0xfffffee0
2000d4bc:	00002020 	andeq	r2, r0, r0, lsr #32
2000d4c0:	65657266 	strbvs	r7, [r5, #-614]!	; 0xfffffd9a
2000d4c4:	71726920 	cmnvc	r2, r0, lsr #18
2000d4c8:	6425203a 	strtvs	r2, [r5], #-58	; 0xffffffc6
2000d4cc:	63757320 	cmnvs	r5, #32, 6	; 0x80000000
2000d4d0:	73736563 	cmnvc	r3, #415236096	; 0x18c00000
2000d4d4:	00000a21 	andeq	r0, r0, r1, lsr #20
2000d4d8:	65657266 	strbvs	r7, [r5, #-614]!	; 0xfffffd9a
2000d4dc:	71726920 	cmnvc	r2, r0, lsr #18
2000d4e0:	69616620 	stmdbvs	r1!, {r5, r9, sl, sp, lr}^
2000d4e4:	2164656c 	cmncs	r4, ip, ror #10
2000d4e8:	0000000a 	andeq	r0, r0, sl
2000d4ec:	2079656b 	rsbscs	r6, r9, fp, ror #10
2000d4f0:	68676972 	stmdavs	r7!, {r1, r4, r5, r6, r8, fp, sp, lr}^
2000d4f4:	6f642074 	svcvs	0x00642074
2000d4f8:	202c6e77 	eorcs	r6, ip, r7, ror lr
2000d4fc:	20717269 	rsbscs	r7, r1, r9, ror #4
2000d500:	626d756e 	rsbvs	r7, sp, #461373440	; 0x1b800000
2000d504:	6f207265 	svcvs	0x00207265
2000d508:	656b2066 	strbvs	r2, [fp, #-102]!	; 0xffffff9a
2000d50c:	25203a79 	strcs	r3, [r0, #-2681]!	; 0xfffff587
2000d510:	6e612064 	cdpvs	0, 6, cr2, cr1, cr4, {3}
2000d514:	72742064 	rsbsvc	r2, r4, #100	; 0x64
2000d518:	6f742079 	svcvs	0x00742079
2000d51c:	71657220 	cmnvc	r5, r0, lsr #4
2000d520:	74736575 	ldrbtvc	r6, [r3], #-1397	; 0xfffffa8b
2000d524:	79656b20 	stmdbvc	r5!, {r5, r8, r9, fp, sp, lr}^
2000d528:	0a707520 	beq	21c2a9b0 <__end_bss+0x1c1adc4>
2000d52c:	00000000 	andeq	r0, r0, r0
2000d530:	7579656b 	ldrbvc	r6, [r9, #-1387]!	; 0xfffffa95
2000d534:	00000070 	andeq	r0, r0, r0, ror r0
2000d538:	6479656b 	ldrbtvs	r6, [r9], #-1387	; 0xfffffa95
2000d53c:	006e776f 	rsbeq	r7, lr, pc, ror #14
2000d540:	6c79656b 	cfldr64vs	mvdx6, [r9], #-428	; 0xfffffe54
2000d544:	00746665 	rsbseq	r6, r4, r5, ror #12
2000d548:	7279656b 	rsbsvc	r6, r9, #448790528	; 0x1ac00000
2000d54c:	74686769 	strbtvc	r6, [r8], #-1897	; 0xfffff897
2000d550:	00000000 	andeq	r0, r0, r0
2000d554:	6579656b 	ldrbvs	r6, [r9, #-1387]!	; 0xfffffa95
2000d558:	7265746e 	rsbvc	r7, r5, #1845493760	; 0x6e000000
2000d55c:	00000000 	andeq	r0, r0, r0
2000d560:	6579656b 	ldrbvs	r6, [r9, #-1387]!	; 0xfffffa95
2000d564:	00746978 	rsbseq	r6, r4, r8, ror r9
2000d568:	6879656b 	ldmdavs	r9!, {r0, r1, r3, r5, r6, r8, sl, sp, lr}^
2000d56c:	00656d6f 	rsbeq	r6, r5, pc, ror #26
2000d570:	7079656b 	rsbsvc	r6, r9, fp, ror #10
2000d574:	7265776f 	rsbvc	r7, r5, #29097984	; 0x1bc0000
2000d578:	00000000 	andeq	r0, r0, r0
2000d57c:	64616f6c 	strbtvs	r6, [r1], #-3948	; 0xfffff094
2000d580:	76656420 	strbtvc	r6, [r5], -r0, lsr #8
2000d584:	20656369 	rsbcs	r6, r5, r9, ror #6
2000d588:	76697264 	strbtvc	r7, [r9], -r4, ror #4
2000d58c:	65207265 	strvs	r7, [r0, #-613]!	; 0xfffffd9b
2000d590:	726f7272 	rsbvc	r7, pc, #536870919	; 0x20000007
2000d594:	00000a21 	andeq	r0, r0, r1, lsr #20
2000d598:	69767264 	ldmdbvs	r6!, {r2, r5, r6, r9, ip, sp, lr}^
2000d59c:	64097265 	strvs	r7, [r9], #-613	; 0xfffffd9b
2000d5a0:	63697665 	cmnvs	r9, #105906176	; 0x6500000
2000d5a4:	6d090965 	vstrvs.16	s0, [r9, #-202]	; 0xffffff36	; <UNPREDICTABLE>
2000d5a8:	726f6a61 	rsbvc	r6, pc, #397312	; 0x61000
2000d5ac:	6e696d09 	cdpvs	13, 6, cr6, cr9, cr9, {0}
2000d5b0:	000a726f 	andeq	r7, sl, pc, ror #4
2000d5b4:	00007325 	andeq	r7, r0, r5, lsr #6
2000d5b8:	09732509 	ldmdbeq	r3!, {r0, r3, r8, sl, sp}^
2000d5bc:	09642509 	stmdbeq	r4!, {r0, r3, r8, sl, sp}^
2000d5c0:	000a6425 	andeq	r6, sl, r5, lsr #8
2000d5c4:	6f697270 	svcvs	0x00697270
2000d5c8:	79746972 	ldmdbvc	r4!, {r1, r4, r5, r6, r8, fp, sp, lr}^
2000d5cc:	73756d20 	cmnvc	r5, #32, 26	; 0x800
2000d5d0:	65622074 	strbvs	r2, [r2, #-116]!	; 0xffffff8c
2000d5d4:	65657774 	strbvs	r7, [r5, #-1908]!	; 0xfffff88c
2000d5d8:	6425206e 	strtvs	r2, [r5], #-110	; 0xffffff92
2000d5dc:	646e6120 	strbtvs	r6, [lr], #-288	; 0xfffffee0
2000d5e0:	0a642520 	beq	21916a68 <__end_bss+0x1906e7c>
2000d5e4:	00000000 	andeq	r0, r0, r0
2000d5e8:	6f6d656d 	svcvs	0x006d656d
2000d5ec:	66207972 			; <UNDEFINED> instruction: 0x66207972
2000d5f0:	20656572 	rsbcs	r6, r5, r2, ror r5
2000d5f4:	6c696166 	stfvse	f6, [r9], #-408	; 0xfffffe68
2000d5f8:	69206465 	stmdbvs	r0!, {r0, r2, r5, r6, sl, sp, lr}
2000d5fc:	7566206e 	strbvc	r2, [r6, #-110]!	; 0xffffff92
2000d600:	6974636e 	ldmdbvs	r4!, {r1, r2, r3, r5, r6, r8, r9, sp, lr}^
2000d604:	63206e6f 			; <UNDEFINED> instruction: 0x63206e6f
2000d608:	74616572 	strbtvc	r6, [r1], #-1394	; 0xfffffa8e
2000d60c:	70635f65 	rsbvc	r5, r3, r5, ror #30
2000d610:	6c646975 			; <UNDEFINED> instruction: 0x6c646975
2000d614:	68745f65 	ldmdavs	r4!, {r0, r2, r5, r6, r8, r9, sl, fp, ip, lr}^
2000d618:	64616572 	strbtvs	r6, [r1], #-1394	; 0xfffffa8e
2000d61c:	20666f20 	rsbcs	r6, r6, r0, lsr #30
2000d620:	6c6e726b 	sfmvs	f7, 2, [lr], #-428	; 0xfffffe54
2000d624:	69757063 	ldmdbvs	r5!, {r0, r1, r5, r6, ip, sp, lr}^
2000d628:	2e656c64 	cdpcs	12, 6, cr6, cr5, cr4, {3}
2000d62c:	00000063 	andeq	r0, r0, r3, rrx
2000d630:	61206f6e 			; <UNDEFINED> instruction: 0x61206f6e
2000d634:	76697463 	strbtvc	r7, [r9], -r3, ror #8
2000d638:	20657469 	rsbcs	r7, r5, r9, ror #8
2000d63c:	65726874 	ldrbvs	r6, [r2, #-2164]!	; 0xfffff78c
2000d640:	74206461 	strtvc	r6, [r0], #-1121	; 0xfffffb9f
2000d644:	7572206f 	ldrbvc	r2, [r2, #-111]!	; 0xffffff91
2000d648:	000a216e 	andeq	r2, sl, lr, ror #2
2000d64c:	20757063 	rsbscs	r7, r5, r3, rrx
2000d650:	656c6469 	strbvs	r6, [ip, #-1129]!	; 0xfffffb97
2000d654:	72687420 	rsbvc	r7, r8, #32, 8	; 0x20000000
2000d658:	20646165 	rsbcs	r6, r4, r5, ror #2
2000d65c:	65207369 	strvs	r7, [r0, #-873]!	; 0xfffffc97
2000d660:	7974706d 	ldmdbvc	r4!, {r0, r2, r3, r5, r6, ip, sp, lr}^
2000d664:	00000a21 	andeq	r0, r0, r1, lsr #20
2000d668:	6e72656b 	cdpvs	5, 7, cr6, cr2, cr11, {3}
2000d66c:	65206c65 	strvs	r6, [r0, #-3173]!	; 0xfffff39b
2000d670:	726f7272 	rsbvc	r7, pc, #536870919	; 0x20000007
2000d674:	206e6920 	rsbcs	r6, lr, r0, lsr #18
2000d678:	656e696c 	strbvs	r6, [lr, #-2412]!	; 0xfffff694
2000d67c:	20642520 	rsbcs	r2, r4, r0, lsr #10
2000d680:	2520666f 	strcs	r6, [r0, #-1647]!	; 0xfffff991
2000d684:	00000a73 	andeq	r0, r0, r3, ror sl
2000d688:	632f2e2e 			; <UNDEFINED> instruction: 0x632f2e2e
2000d68c:	2f65726f 	svccs	0x0065726f
2000d690:	65726f63 	ldrbvs	r6, [r2, #-3939]!	; 0xfffff09d
2000d694:	65686373 	strbvs	r6, [r8, #-883]!	; 0xfffffc8d
2000d698:	00632e64 	rsbeq	r2, r3, r4, ror #28
2000d69c:	74696177 	strbtvc	r6, [r9], #-375	; 0xfffffe89
2000d6a0:	73696c20 	cmnvc	r9, #32, 24	; 0x2000
2000d6a4:	6f632074 	svcvs	0x00632074
2000d6a8:	2074276e 	rsbscs	r2, r4, lr, ror #14
2000d6ac:	74706d65 	ldrbtvc	r6, [r0], #-3429	; 0xfffff29b
2000d6b0:	00002179 	andeq	r2, r0, r9, ror r1
2000d6b4:	74696e69 	strbtvc	r6, [r9], #-3689	; 0xfffff197
2000d6b8:	75706320 	ldrbvc	r6, [r0, #-800]!	; 0xfffffce0
2000d6bc:	656c6469 	strbvs	r6, [ip, #-1129]!	; 0xfffffb97
2000d6c0:	72726520 	rsbsvc	r6, r2, #32, 10	; 0x8000000
2000d6c4:	000a726f 	andeq	r7, sl, pc, ror #4
2000d6c8:	2d2d2d2d 	stccs	13, cr2, [sp, #-180]!	; 0xffffff4c
2000d6cc:	2d2d2d2d 	stccs	13, cr2, [sp, #-180]!	; 0xffffff4c
2000d6d0:	2d2d2d2d 	stccs	13, cr2, [sp, #-180]!	; 0xffffff4c
2000d6d4:	2d2d2d2d 	stccs	13, cr2, [sp, #-180]!	; 0xffffff4c
2000d6d8:	2d2d2d2d 	stccs	13, cr2, [sp, #-180]!	; 0xffffff4c
2000d6dc:	2d2d2d2d 	stccs	13, cr2, [sp, #-180]!	; 0xffffff4c
2000d6e0:	2d2d2d2d 	stccs	13, cr2, [sp, #-180]!	; 0xffffff4c
2000d6e4:	2d2d2d2d 	stccs	13, cr2, [sp, #-180]!	; 0xffffff4c
2000d6e8:	2d2d2d2d 	stccs	13, cr2, [sp, #-180]!	; 0xffffff4c
2000d6ec:	2d2d2d2d 	stccs	13, cr2, [sp, #-180]!	; 0xffffff4c
2000d6f0:	2d2d2d2d 	stccs	13, cr2, [sp, #-180]!	; 0xffffff4c
2000d6f4:	2d2d2d2d 	stccs	13, cr2, [sp, #-180]!	; 0xffffff4c
2000d6f8:	2d2d2d2d 	stccs	13, cr2, [sp, #-180]!	; 0xffffff4c
2000d6fc:	2d2d2d2d 	stccs	13, cr2, [sp, #-180]!	; 0xffffff4c
2000d700:	2d2d2d2d 	stccs	13, cr2, [sp, #-180]!	; 0xffffff4c
2000d704:	2d2d2d2d 	stccs	13, cr2, [sp, #-180]!	; 0xffffff4c
2000d708:	2d2d2d2d 	stccs	13, cr2, [sp, #-180]!	; 0xffffff4c
2000d70c:	000a2d2d 	andeq	r2, sl, sp, lsr #26
2000d710:	6f697270 	svcvs	0x00697270
2000d714:	79746972 	ldmdbvc	r4!, {r1, r4, r5, r6, r8, fp, sp, lr}^
2000d718:	20666f20 	rsbcs	r6, r6, r0, lsr #30
2000d71c:	6b736174 	blvs	21ce5cf4 <__end_bss+0x1cd6108>
2000d720:	33203a33 			; <UNDEFINED> instruction: 0x33203a33
2000d724:	0000000a 	andeq	r0, r0, sl
2000d728:	6f697270 	svcvs	0x00697270
2000d72c:	79746972 	ldmdbvc	r4!, {r1, r4, r5, r6, r8, fp, sp, lr}^
2000d730:	20666f20 	rsbcs	r6, r6, r0, lsr #30
2000d734:	6b736174 	blvs	21ce5d0c <__end_bss+0x1cd6120>
2000d738:	31203a33 			; <UNDEFINED> instruction: 0x31203a33
2000d73c:	0000000a 	andeq	r0, r0, sl
2000d740:	6b736174 	blvs	21ce5d18 <__end_bss+0x1cd612c>
2000d744:	76203a31 			; <UNDEFINED> instruction: 0x76203a31
2000d748:	3d207261 	sfmcc	f7, 4, [r0, #-388]!	; 0xfffffe7c
2000d74c:	0a642520 	beq	21916bd4 <__end_bss+0x1906fe8>
2000d750:	00000000 	andeq	r0, r0, r0
2000d754:	6b736174 	blvs	21ce5d2c <__end_bss+0x1cd6140>
2000d758:	76203a32 			; <UNDEFINED> instruction: 0x76203a32
2000d75c:	3d207261 	sfmcc	f7, 4, [r0, #-388]!	; 0xfffffe7c
2000d760:	0a642520 	beq	21916be8 <__end_bss+0x1906ffc>
2000d764:	00000000 	andeq	r0, r0, r0
2000d768:	2b2b2b2b 	blcs	20ad841c <__end_bss+0xac8830>
2000d76c:	2b2b2b2b 	blcs	20ad8420 <__end_bss+0xac8834>
2000d770:	2b2b2b2b 	blcs	20ad8424 <__end_bss+0xac8838>
2000d774:	2b2b2b2b 	blcs	20ad8428 <__end_bss+0xac883c>
2000d778:	2b2b2b2b 	blcs	20ad842c <__end_bss+0xac8840>
2000d77c:	2b2b2b2b 	blcs	20ad8430 <__end_bss+0xac8844>
2000d780:	2b2b2b2b 	blcs	20ad8434 <__end_bss+0xac8848>
2000d784:	2b2b2b2b 	blcs	20ad8438 <__end_bss+0xac884c>
2000d788:	2b2b2b2b 	blcs	20ad843c <__end_bss+0xac8850>
2000d78c:	2b2b2b2b 	blcs	20ad8440 <__end_bss+0xac8854>
2000d790:	2b2b2b2b 	blcs	20ad8444 <__end_bss+0xac8858>
2000d794:	2b2b2b2b 	blcs	20ad8448 <__end_bss+0xac885c>
2000d798:	0a2b2b2b 	beq	20ad844c <__end_bss+0xac8860>
2000d79c:	00000000 	andeq	r0, r0, r0
2000d7a0:	646e6573 	strbtvs	r6, [lr], #-1395	; 0xfffffa8d
2000d7a4:	67736d20 	ldrbvs	r6, [r3, -r0, lsr #26]!
2000d7a8:	6822203a 	stmdavs	r2!, {r1, r3, r4, r5, sp}
2000d7ac:	6f6c6c65 	svcvs	0x006c6c65
2000d7b0:	4d545320 	ldclmi	3, cr5, [r4, #-128]	; 0xffffff80
2000d7b4:	31463233 	cmpcc	r6, r3, lsr r2
2000d7b8:	43523330 	cmpmi	r2, #48, 6	; 0xc0000000
2000d7bc:	22213654 	eorcs	r3, r1, #84, 12	; 0x5400000
2000d7c0:	206e6920 	rsbcs	r6, lr, r0, lsr #18
2000d7c4:	6b736174 	blvs	21ce5d9c <__end_bss+0x1cd61b0>
2000d7c8:	00000a21 	andeq	r0, r0, r1, lsr #20
2000d7cc:	646e6573 	strbtvs	r6, [lr], #-1395	; 0xfffffa8d
2000d7d0:	73617420 	cmnvc	r1, #32, 8	; 0x20000000
2000d7d4:	6177206b 	cmnvs	r7, fp, rrx
2000d7d8:	63612073 	cmnvs	r1, #115	; 0x73
2000d7dc:	61766974 	cmnvs	r6, r4, ror r9
2000d7e0:	20646574 	rsbcs	r6, r4, r4, ror r5
2000d7e4:	20646e61 	rsbcs	r6, r4, r1, ror #28
2000d7e8:	70657270 	rsbvc	r7, r5, r0, ror r2
2000d7ec:	64657261 	strbtvs	r7, [r5], #-609	; 0xfffffd9f
2000d7f0:	206f7420 	rsbcs	r7, pc, r0, lsr #8
2000d7f4:	646e6573 	strbtvs	r6, [lr], #-1395	; 0xfffffa8d
2000d7f8:	67736d20 	ldrbvs	r6, [r3, -r0, lsr #26]!
2000d7fc:	6822203a 	stmdavs	r2!, {r1, r3, r4, r5, sp}
2000d800:	6f6c6c65 	svcvs	0x006c6c65
2000d804:	4d545320 	ldclmi	3, cr5, [r4, #-128]	; 0xffffff80
2000d808:	31463233 	cmpcc	r6, r3, lsr r2
2000d80c:	43523330 	cmpmi	r2, #48, 6	; 0xc0000000
2000d810:	22213654 	eorcs	r3, r1, #84, 12	; 0x5400000
2000d814:	0000000a 	andeq	r0, r0, sl
2000d818:	72617473 	rsbvc	r7, r1, #1929379840	; 0x73000000
2000d81c:	6f742074 	svcvs	0x00742074
2000d820:	6e657320 	cdpvs	3, 6, cr7, cr5, cr0, {1}
2000d824:	736d2064 	cmnvc	sp, #100	; 0x64
2000d828:	22203a67 	eorcs	r3, r0, #421888	; 0x67000
2000d82c:	6c6c6568 	cfstr64vs	mvdx6, [ip], #-416	; 0xfffffe60
2000d830:	5453206f 	ldrbpl	r2, [r3], #-111	; 0xffffff91
2000d834:	4632334d 	ldrtmi	r3, [r2], -sp, asr #6
2000d838:	52333031 	eorspl	r3, r3, #49	; 0x31
2000d83c:	21365443 	teqcs	r6, r3, asr #8
2000d840:	00000a22 	andeq	r0, r0, r2, lsr #20
2000d844:	646e6573 	strbtvs	r6, [lr], #-1395	; 0xfffffa8d
2000d848:	6d6f6320 	stclvs	3, cr6, [pc, #-128]!	; 2000d7d0 <strstr+0xa68>
2000d84c:	656c6970 	strbvs	r6, [ip, #-2416]!	; 0xfffff690
2000d850:	6e612064 	cdpvs	0, 6, cr2, cr1, cr4, {3}
2000d854:	65732064 	ldrbvs	r2, [r3, #-100]!	; 0xffffff9c
2000d858:	7420646e 	strtvc	r6, [r0], #-1134	; 0xfffffb92
2000d85c:	206b7361 	rsbcs	r7, fp, r1, ror #6
2000d860:	20736177 	rsbscs	r6, r3, r7, ror r1
2000d864:	70737573 	rsbsvc	r7, r3, r3, ror r5
2000d868:	65646e65 	strbvs	r6, [r4, #-3685]!	; 0xfffff19b
2000d86c:	000a2164 	andeq	r2, sl, r4, ror #2
2000d870:	6b736174 	blvs	21ce5e48 <__end_bss+0x1cd625c>
2000d874:	69617720 	stmdbvs	r1!, {r5, r8, r9, sl, ip, sp, lr}^
2000d878:	736d2074 	cmnvc	sp, #116	; 0x74
2000d87c:	6e612067 	cdpvs	0, 6, cr2, cr1, cr7, {3}
2000d880:	61772064 	cmnvs	r7, r4, rrx
2000d884:	75732073 	ldrbvc	r2, [r3, #-115]!	; 0xffffff8d
2000d888:	6e657073 	mcrvs	0, 3, r7, cr5, cr3, {3}
2000d88c:	21646564 	cmncs	r4, r4, ror #10
2000d890:	0000000a 	andeq	r0, r0, sl
2000d894:	76636572 			; <UNDEFINED> instruction: 0x76636572
2000d898:	73617420 	cmnvc	r1, #32, 8	; 0x20000000
2000d89c:	6177206b 	cmnvs	r7, fp, rrx
2000d8a0:	63612073 	cmnvs	r1, #115	; 0x73
2000d8a4:	61766974 	cmnvs	r6, r4, ror r9
2000d8a8:	20646574 	rsbcs	r6, r4, r4, ror r5
2000d8ac:	20646e61 	rsbcs	r6, r4, r1, ror #28
2000d8b0:	70657270 	rsbvc	r7, r5, r0, ror r2
2000d8b4:	64657261 	strbtvs	r7, [r5], #-609	; 0xfffffd9f
2000d8b8:	206f7420 	rsbcs	r7, pc, r0, lsr #8
2000d8bc:	76636572 			; <UNDEFINED> instruction: 0x76636572
2000d8c0:	67736d20 	ldrbvs	r6, [r3, -r0, lsr #26]!
2000d8c4:	00000a21 	andeq	r0, r0, r1, lsr #20
2000d8c8:	76636572 			; <UNDEFINED> instruction: 0x76636572
2000d8cc:	67736d20 	ldrbvs	r6, [r3, -r0, lsr #26]!
2000d8d0:	6822203a 	stmdavs	r2!, {r1, r3, r4, r5, sp}
2000d8d4:	6f6c6c65 	svcvs	0x006c6c65
2000d8d8:	32515420 	subscc	r5, r1, #32, 8	; 0x20000000
2000d8dc:	22213031 	eorcs	r3, r1, #49	; 0x31
2000d8e0:	0000000a 	andeq	r0, r0, sl
2000d8e4:	76636572 			; <UNDEFINED> instruction: 0x76636572
2000d8e8:	73617420 	cmnvc	r1, #32, 8	; 0x20000000
2000d8ec:	7473206b 	ldrbtvc	r2, [r3], #-107	; 0xffffff95
2000d8f0:	20747261 	rsbscs	r7, r4, r1, ror #4
2000d8f4:	74206f74 	strtvc	r6, [r0], #-3956	; 0xfffff08c
2000d8f8:	736e6172 	cmnvc	lr, #-2147483620	; 0x8000001c
2000d8fc:	2074696d 	rsbscs	r6, r4, sp, ror #18
2000d900:	3a67736d 	bcc	219ea6bc <__end_bss+0x19daad0>
2000d904:	65682220 	strbvs	r2, [r8, #-544]!	; 0xfffffde0
2000d908:	206f6c6c 	rsbcs	r6, pc, ip, ror #24
2000d90c:	31325154 	teqcc	r2, r4, asr r1
2000d910:	0a222130 	beq	20895dd8 <__end_bss+0x8861ec>
2000d914:	00000000 	andeq	r0, r0, r0
2000d918:	6b736174 	blvs	21ce5ef0 <__end_bss+0x1cd6304>
2000d91c:	73617720 	cmnvc	r1, #32, 14	; 0x800000
2000d920:	74636120 	strbtvc	r6, [r3], #-288	; 0xfffffee0
2000d924:	74617669 	strbtvc	r7, [r1], #-1641	; 0xfffff997
2000d928:	61206465 			; <UNDEFINED> instruction: 0x61206465
2000d92c:	7220646e 	eorvc	r6, r0, #1845493760	; 0x6e000000
2000d930:	20766365 	rsbscs	r6, r6, r5, ror #6
2000d934:	3a67736d 	bcc	219ea6f0 <__end_bss+0x19dab04>
2000d938:	65682220 	strbvs	r2, [r8, #-544]!	; 0xfffffde0
2000d93c:	206f6c6c 	rsbcs	r6, pc, ip, ror #24
2000d940:	31325154 	teqcc	r2, r4, asr r1
2000d944:	0a222130 	beq	20895e0c <__end_bss+0x886220>
2000d948:	00000000 	andeq	r0, r0, r0
2000d94c:	78257830 	stmdavc	r5!, {r4, r5, fp, ip, sp, lr}
2000d950:	6d656d20 	stclvs	13, cr6, [r5, #-128]!	; 0xffffff80
2000d954:	2079726f 	rsbscs	r7, r9, pc, ror #4
2000d958:	636f6c62 	cmnvs	pc, #25088	; 0x6200
2000d95c:	6425206b 	strtvs	r2, [r5], #-107	; 0xffffff95
2000d960:	6461202c 	strbtvs	r2, [r1], #-44	; 0xffffffd4
2000d964:	73657264 	cmnvc	r5, #100, 4	; 0x40000006
2000d968:	30203a73 	eorcc	r3, r0, r3, ror sl
2000d96c:	0a782578 	beq	21e16f54 <__end_bss+0x1e07368>
2000d970:	00000000 	andeq	r0, r0, r0
2000d974:	6d204d34 	stcvs	13, cr4, [r0, #-208]!	; 0xffffff30
2000d978:	726f6d65 	rsbvc	r6, pc, #6464	; 0x1940
2000d97c:	6c622079 	stclvs	0, cr2, [r2], #-484	; 0xfffffe1c
2000d980:	206b636f 	rsbcs	r6, fp, pc, ror #6
2000d984:	756f6d61 	strbvc	r6, [pc, #-3425]!	; 2000cc2b <atoi+0x63>
2000d988:	203a746e 	eorscs	r7, sl, lr, ror #8
2000d98c:	000a6425 	andeq	r6, sl, r5, lsr #8
2000d990:	65657266 	strbvs	r7, [r5, #-614]!	; 0xfffffd9a
2000d994:	64646120 	strbtvs	r6, [r4], #-288	; 0xfffffee0
2000d998:	73736572 	cmnvc	r3, #478150656	; 0x1c800000
2000d99c:	25783020 	ldrbcs	r3, [r8, #-32]!	; 0xffffffe0
2000d9a0:	61662078 	smcvs	25096	; 0x6208
2000d9a4:	64656c69 	strbtvs	r6, [r5], #-3177	; 0xfffff397
2000d9a8:	00000a2e 	andeq	r0, r0, lr, lsr #20
2000d9ac:	65657266 	strbvs	r7, [r5, #-614]!	; 0xfffffd9a
2000d9b0:	64646120 	strbtvs	r6, [r4], #-288	; 0xfffffee0
2000d9b4:	73736572 	cmnvc	r3, #478150656	; 0x1c800000
2000d9b8:	20666f20 	rsbcs	r6, r6, r0, lsr #30
2000d9bc:	6f6d656d 	svcvs	0x006d656d
2000d9c0:	62207972 	eorvs	r7, r0, #1867776	; 0x1c8000
2000d9c4:	6b636f6c 	blvs	218e977c <__end_bss+0x18d9b90>
2000d9c8:	7830203a 	ldmdavc	r0!, {r1, r3, r4, r5, sp}
2000d9cc:	000a7825 	andeq	r7, sl, r5, lsr #16
2000d9d0:	61746f74 	cmnvs	r4, r4, ror pc
2000d9d4:	6170206c 	cmnvs	r0, ip, rrx
2000d9d8:	63206567 			; <UNDEFINED> instruction: 0x63206567
2000d9dc:	746e756f 	strbtvc	r7, [lr], #-1391	; 0xfffffa91
2000d9e0:	666f2073 			; <UNDEFINED> instruction: 0x666f2073
2000d9e4:	6d656d20 	stclvs	13, cr6, [r5, #-128]!	; 0xffffff80
2000d9e8:	2079726f 	rsbscs	r7, r9, pc, ror #4
2000d9ec:	6c6f6f70 	stclvs	15, cr6, [pc], #-448	; 2000d834 <strstr+0xacc>
2000d9f0:	6425203a 	strtvs	r2, [r5], #-58	; 0xffffffc6
2000d9f4:	0000000a 	andeq	r0, r0, sl
2000d9f8:	6f6c6c61 	svcvs	0x006c6c61
2000d9fc:	64612063 	strbtvs	r2, [r1], #-99	; 0xffffff9d
2000da00:	73657264 	cmnvc	r5, #100, 4	; 0x40000006
2000da04:	30203a73 	eorcc	r3, r0, r3, ror sl
2000da08:	0a782578 	beq	21e16ff0 <__end_bss+0x1e07404>
2000da0c:	00000000 	andeq	r0, r0, r0
2000da10:	64657375 	strbtvs	r7, [r5], #-885	; 0xfffffc8b
2000da14:	67617020 	strbvs	r7, [r1, -r0, lsr #32]!
2000da18:	6f632065 	svcvs	0x00632065
2000da1c:	7374756e 	cmnvc	r4, #461373440	; 0x1b800000
2000da20:	20666f20 	rsbcs	r6, r6, r0, lsr #30
2000da24:	6f6d656d 	svcvs	0x006d656d
2000da28:	70207972 	eorvc	r7, r0, r2, ror r9
2000da2c:	3a6c6f6f 	bcc	21b297f0 <__end_bss+0x1b19c04>
2000da30:	0a642520 	beq	21916eb8 <__end_bss+0x19072cc>
2000da34:	00000000 	andeq	r0, r0, r0
2000da38:	65657266 	strbvs	r7, [r5, #-614]!	; 0xfffffd9a
2000da3c:	64646120 	strbtvs	r6, [r4], #-288	; 0xfffffee0
2000da40:	73736572 	cmnvc	r3, #478150656	; 0x1c800000
2000da44:	7830203a 	ldmdavc	r0!, {r1, r3, r4, r5, sp}
2000da48:	000a7825 	andeq	r7, sl, r5, lsr #16
2000da4c:	61746f74 	cmnvs	r4, r4, ror pc
2000da50:	7962206c 	stmdbvc	r2!, {r2, r3, r5, r6, sp}^
2000da54:	70206574 	eorvc	r6, r0, r4, ror r5
2000da58:	20656761 	rsbcs	r6, r5, r1, ror #14
2000da5c:	6e756f63 	cdpvs	15, 7, cr6, cr5, cr3, {3}
2000da60:	6f207374 	svcvs	0x00207374
2000da64:	656d2066 	strbvs	r2, [sp, #-102]!	; 0xffffff9a
2000da68:	79726f6d 	ldmdbvc	r2!, {r0, r2, r3, r5, r6, r8, r9, sl, fp, sp, lr}^
2000da6c:	6f6f7020 	svcvs	0x006f7020
2000da70:	25203a6c 	strcs	r3, [r0, #-2668]!	; 0xfffff594
2000da74:	00000a64 	andeq	r0, r0, r4, ror #20
2000da78:	64657375 	strbtvs	r7, [r5], #-885	; 0xfffffc8b
2000da7c:	74796220 	ldrbtvc	r6, [r9], #-544	; 0xfffffde0
2000da80:	61702065 	cmnvs	r0, r5, rrx
2000da84:	63206567 			; <UNDEFINED> instruction: 0x63206567
2000da88:	74756e6f 	ldrbtvc	r6, [r5], #-3695	; 0xfffff191
2000da8c:	666f2073 			; <UNDEFINED> instruction: 0x666f2073
2000da90:	6d656d20 	stclvs	13, cr6, [r5, #-128]!	; 0xffffff80
2000da94:	2079726f 	rsbscs	r7, r9, pc, ror #4
2000da98:	6c6f6f70 	stclvs	15, cr6, [pc], #-448	; 2000d8e0 <strstr+0xb78>
2000da9c:	6425203a 	strtvs	r2, [r5], #-58	; 0xffffffc6
2000daa0:	0000000a 	andeq	r0, r0, sl
2000daa4:	6b736174 	blvs	21ce607c <__end_bss+0x1cd6490>
2000daa8:	6e692030 	mcrvs	0, 3, r2, cr9, cr0, {1}
2000daac:	65207469 	strvs	r7, [r0, #-1129]!	; 0xfffffb97
2000dab0:	726f7272 	rsbvc	r7, pc, #536870919	; 0x20000007
2000dab4:	00000a21 	andeq	r0, r0, r1, lsr #20
2000dab8:	6b736174 	blvs	21ce6090 <__end_bss+0x1cd64a4>
2000dabc:	6e692031 	mcrvs	0, 3, r2, cr9, cr1, {1}
2000dac0:	65207469 	strvs	r7, [r0, #-1129]!	; 0xfffffb97
2000dac4:	726f7272 	rsbvc	r7, pc, #536870919	; 0x20000007
2000dac8:	00000a21 	andeq	r0, r0, r1, lsr #20
2000dacc:	6e65706f 	cdpvs	0, 6, cr7, cr5, cr15, {3}
2000dad0:	73697320 	cmnvc	r9, #32, 6	; 0x80000000
2000dad4:	6b636974 	blvs	218e80ac <__end_bss+0x18d84c0>
2000dad8:	76656420 	strbtvc	r6, [r5], -r0, lsr #8
2000dadc:	21656369 	cmncs	r5, r9, ror #6
2000dae0:	0000000a 	andeq	r0, r0, sl
2000dae4:	74737973 	ldrbtvc	r7, [r3], #-2419	; 0xfffff68d
2000dae8:	006b6369 	rsbeq	r6, fp, r9, ror #6
2000daec:	74726175 	ldrbtvc	r6, [r2], #-373	; 0xfffffe8b
2000daf0:	00000032 	andeq	r0, r0, r2, lsr r0

Disassembly of section .data:

2000daf4 <UDIVSLOTn_NUM>:
2000daf4:	00000000 	andeq	r0, r0, r0
2000daf8:	00000080 	andeq	r0, r0, r0, lsl #1
2000dafc:	00000808 	andeq	r0, r0, r8, lsl #16
2000db00:	00000888 	andeq	r0, r0, r8, lsl #17
2000db04:	00002222 	andeq	r2, r0, r2, lsr #4
2000db08:	00004924 	andeq	r4, r0, r4, lsr #18
2000db0c:	00004a52 	andeq	r4, r0, r2, asr sl
2000db10:	000054aa 	andeq	r5, r0, sl, lsr #9
2000db14:	00005555 	andeq	r5, r0, r5, asr r5
2000db18:	0000d555 	andeq	sp, r0, r5, asr r5
2000db1c:	0000d5d5 	ldrdeq	sp, [r0], -r5
2000db20:	0000ddd5 	ldrdeq	sp, [r0], -r5
2000db24:	0000dddd 	ldrdeq	sp, [r0], -sp	; <UNPREDICTABLE>
2000db28:	0000dfdd 	ldrdeq	sp, [r0], -sp	; <UNPREDICTABLE>
2000db2c:	0000dfdf 	ldrdeq	sp, [r0], -pc	; <UNPREDICTABLE>
2000db30:	0000ffdf 	ldrdeq	pc, [r0], -pc	; <UNPREDICTABLE>
2000db34:	00000000 	andeq	r0, r0, r0

2000db38 <exit_gpiomap>:
2000db38:	00000000 	andeq	r0, r0, r0
2000db3c:	00000007 	andeq	r0, r0, r7
2000db40:	00000004 	andeq	r0, r0, r4
2000db44:	e0200c00 	eor	r0, r0, r0, lsl #24
2000db48:	e0200e00 	eor	r0, r0, r0, lsl #28
2000db4c:	00000008 	andeq	r0, r0, r8
2000db50:	0000000f 	andeq	r0, r0, pc
2000db54:	00000004 	andeq	r0, r0, r4
2000db58:	e0200c20 	eor	r0, r0, r0, lsr #24
2000db5c:	e0200e04 	eor	r0, r0, r4, lsl #28
2000db60:	00000080 	andeq	r0, r0, r0, lsl #1
2000db64:	00000087 	andeq	r0, r0, r7, lsl #1
2000db68:	00000004 	andeq	r0, r0, r4
2000db6c:	e0200c40 	eor	r0, r0, r0, asr #24
2000db70:	e0200e08 	eor	r0, r0, r8, lsl #28
2000db74:	00000088 	andeq	r0, r0, r8, lsl #1
2000db78:	0000008f 	andeq	r0, r0, pc, lsl #1
2000db7c:	00000004 	andeq	r0, r0, r4
2000db80:	e0200c60 	eor	r0, r0, r0, ror #24
2000db84:	e0200e0c 	eor	r0, r0, ip, lsl #28

2000db88 <adr_space>:
2000db88:	00000002 	andeq	r0, r0, r2
2000db8c:	00000000 	andeq	r0, r0, r0
2000db90:	20000000 	andcs	r0, r0, r0
2000db94:	60000000 	andvs	r0, r0, r0

2000db98 <irq_desc>:
	...

2000f218 <mmap_tlb>:
	...

2000f2ec <bd>:
	...

2000f318 <sleep_list>:
	...

2000f328 <thdsched_tlb>:
	...

2000f65c <drventrytlb>:
2000f65c:	2000c82c 	andcs	ip, r0, ip, lsr #16
2000f660:	00000000 	andeq	r0, r0, r0

2000f664 <drvlist>:
	...

2000f66c <chrdevs>:
	...

2000fa6c <mplmm>:
	...

2000fab4 <dataup>:
2000fab4:	00000001 	andeq	r0, r0, r1

2000fab8 <device>:
2000fab8:	00000001 	andeq	r0, r0, r1

2000fabc <datadown>:
2000fabc:	00000002 	andeq	r0, r0, r2

2000fac0 <systick_ops>:
	...
2000facc:	2000c800 	andcs	ip, r0, r0, lsl #16

2000fad0 <uart2_ops>:
	...
2000fadc:	2000c9b0 			; <UNDEFINED> instruction: 0x2000c9b0

Disassembly of section .rodata:

2000fae0 <quick_find_table>:
2000fae0:	000100ff 	strdeq	r0, [r1], -pc	; <UNPREDICTABLE>
2000fae4:	00010002 	andeq	r0, r1, r2
2000fae8:	00010003 	andeq	r0, r1, r3
2000faec:	00010002 	andeq	r0, r1, r2
2000faf0:	00010004 	andeq	r0, r1, r4
2000faf4:	00010002 	andeq	r0, r1, r2
2000faf8:	00010003 	andeq	r0, r1, r3
2000fafc:	00010002 	andeq	r0, r1, r2
2000fb00:	00010005 	andeq	r0, r1, r5
2000fb04:	00010002 	andeq	r0, r1, r2
2000fb08:	00010003 	andeq	r0, r1, r3
2000fb0c:	00010002 	andeq	r0, r1, r2
2000fb10:	00010004 	andeq	r0, r1, r4
2000fb14:	00010002 	andeq	r0, r1, r2
2000fb18:	00010003 	andeq	r0, r1, r3
2000fb1c:	00010002 	andeq	r0, r1, r2
2000fb20:	00010006 	andeq	r0, r1, r6
2000fb24:	00010002 	andeq	r0, r1, r2
2000fb28:	00010003 	andeq	r0, r1, r3
2000fb2c:	00010002 	andeq	r0, r1, r2
2000fb30:	00010004 	andeq	r0, r1, r4
2000fb34:	00010002 	andeq	r0, r1, r2
2000fb38:	00010003 	andeq	r0, r1, r3
2000fb3c:	00010002 	andeq	r0, r1, r2
2000fb40:	00010005 	andeq	r0, r1, r5
2000fb44:	00010002 	andeq	r0, r1, r2
2000fb48:	00010003 	andeq	r0, r1, r3
2000fb4c:	00010002 	andeq	r0, r1, r2
2000fb50:	00010004 	andeq	r0, r1, r4
2000fb54:	00010002 	andeq	r0, r1, r2
2000fb58:	00010003 	andeq	r0, r1, r3
2000fb5c:	00010002 	andeq	r0, r1, r2
2000fb60:	00010007 	andeq	r0, r1, r7
2000fb64:	00010002 	andeq	r0, r1, r2
2000fb68:	00010003 	andeq	r0, r1, r3
2000fb6c:	00010002 	andeq	r0, r1, r2
2000fb70:	00010004 	andeq	r0, r1, r4
2000fb74:	00010002 	andeq	r0, r1, r2
2000fb78:	00010003 	andeq	r0, r1, r3
2000fb7c:	00010002 	andeq	r0, r1, r2
2000fb80:	00010005 	andeq	r0, r1, r5
2000fb84:	00010002 	andeq	r0, r1, r2
2000fb88:	00010003 	andeq	r0, r1, r3
2000fb8c:	00010002 	andeq	r0, r1, r2
2000fb90:	00010004 	andeq	r0, r1, r4
2000fb94:	00010002 	andeq	r0, r1, r2
2000fb98:	00010003 	andeq	r0, r1, r3
2000fb9c:	00010002 	andeq	r0, r1, r2
2000fba0:	00010006 	andeq	r0, r1, r6
2000fba4:	00010002 	andeq	r0, r1, r2
2000fba8:	00010003 	andeq	r0, r1, r3
2000fbac:	00010002 	andeq	r0, r1, r2
2000fbb0:	00010004 	andeq	r0, r1, r4
2000fbb4:	00010002 	andeq	r0, r1, r2
2000fbb8:	00010003 	andeq	r0, r1, r3
2000fbbc:	00010002 	andeq	r0, r1, r2
2000fbc0:	00010005 	andeq	r0, r1, r5
2000fbc4:	00010002 	andeq	r0, r1, r2
2000fbc8:	00010003 	andeq	r0, r1, r3
2000fbcc:	00010002 	andeq	r0, r1, r2
2000fbd0:	00010004 	andeq	r0, r1, r4
2000fbd4:	00010002 	andeq	r0, r1, r2
2000fbd8:	00010003 	andeq	r0, r1, r3
2000fbdc:	00010002 	andeq	r0, r1, r2

Disassembly of section .bss:

2000fbe0 <var>:
2000fbe0:	00000000 	andeq	r0, r0, r0

2000fbe4 <uart_base>:
2000fbe4:	00000000 	andeq	r0, r0, r0

2000fbe8 <schd_lock>:
2000fbe8:	00000000 	andeq	r0, r0, r0

Disassembly of section .ARM.attributes:

00000000 <.ARM.attributes>:
   0:	00003641 	andeq	r3, r0, r1, asr #12
   4:	61656100 	cmnvs	r5, r0, lsl #2
   8:	01006962 	tsteq	r0, r2, ror #18
   c:	0000002c 	andeq	r0, r0, ip, lsr #32
  10:	726f4305 	rsbvc	r4, pc, #335544320	; 0x14000000
  14:	2d786574 	cfldr64cs	mvdx6, [r8, #-464]!	; 0xfffffe30
  18:	06003841 	streq	r3, [r0], -r1, asr #16
  1c:	0841070a 	stmdaeq	r1, {r1, r3, r8, r9, sl}^
  20:	0a020901 	beq	8242c <CPU_UNDFINS_MODE+0x82351>
  24:	14041202 	strne	r1, [r4], #-514	; 0xfffffdfe
  28:	17011501 	strne	r1, [r1, -r1, lsl #10]
  2c:	1a011803 	bne	46040 <CPU_UNDFINS_MODE+0x45f65>
  30:	22031b02 	andcs	r1, r3, #2048	; 0x800
  34:	Address 0x0000000000000034 is out of bounds.

